	.file	"main.c"
	.text
	.section .rdata,"dr"
	.align 2
.LC0:
	.ascii "Y\0E\0S\0\0\0"
	.align 8
.LC1:
	.ascii "N\0o\0 \0(\0s\0o\0m\0e\0 \0c\0h\0e\0c\0k\0s\0 \0m\0a\0y\0 \0b\0e\0 \0l\0i\0m\0i\0t\0e\0d\0)\0\0\0"
	.align 8
.LC2:
	.ascii "\33\0[\0"
	.ascii "1\0m\0\33\0[\0"
	.ascii "9\0"
	.ascii "5\0m\0\12\0 \0 \0\210%\210%\210%\210%\210%\210%\210%W%\210%\210%\210%\210%\210%\210%\210%W%\210%\210%\210%\210%\210%\210%W% \0\210%\210%\210%\210%\210%\210%W% \0\210%\210%W% \0 \0 \0\210%\210%W%\210%\210%\210%W% \0 \0 \0\210%\210%\210%W%\12\0 \0 \0\210%\210%T%P%P%P%P%]%\210%\210%T%P%P%P%P%]%\210%\210%T%P%P%\210%\210%W%\210%\210%T%P%P%\210%\210%W%\210%\210%Q% \0 \0 \0\210%\210%Q%\210%\210%\210%\210%W% \0\210%\210%\210%\210%Q%\12\0 \0 \0\210%\210%\210%\210%\210%W% \0 \0\210%\210%\210%\210%\210%W% \0 \0\210%\210%\210%\210%\210%\210%T%]%\210%\210%\210%\210%\210%\210%T%]%\210%\210%Q% \0 \0 \0\210%\210%Q%\210%\210%T%\210%\210%\210%\210%T%\210%\210%Q%\12\0 \0 \0\210%\210%T%P%P%]% \0 \0\210%\210%T%P%P%]% \0 \0\210%\210%T%P%P%\210%\210%W%\210%\210%T%P%P%\210%\210%W%\210%\210%Q% \0 \0 \0\210%\210%Q%\210%\210%Q%Z%\210%\210%T%]%\210%\210%Q%\12\0 \0 \0\210%\210%Q% \0 \0 \0 \0 \0\210%\210%\210%\210%\210%\210%\210%W%\210%\210%Q% \0 \0\210%\210%Q%\210%\210%Q% \0 \0\210%\210%Q%Z%\210%\210%\210%\210%\210%\210%T%]%\210%\210%Q% \0Z%P%]% \0\210%\210%Q%\12\0 \0 \0Z%P%]% \0 \0 \0 \0 \0Z%P%P%P%P%P%P%]%Z%P%]% \0 \0Z%P%]%Z%P%]% \0 \0Z%P%]% \0Z%P%P%P%P%P%]% \0Z%P%]% \0 \0 \0 \0 \0Z%P%]%\12\0\33\0[\0"
	.ascii "0\0m\0\33\0[\0"
	.ascii "9\0"
	.ascii "6\0m\0 \0 \0W\0i\0n\0d\0o\0w\0s\0 \0L\0P\0E\0 \0S\0u\0r\0f\0a\0c\0e\0 \0E\0n\0u\0m\0e\0r\0a\0t\0o\0r\0 \0 \0|\0 \0 \0C\0 \0E\0d\0i\0t\0i\0o\0n\0\12\0 \0 \0B\0a\0s\0e\0d\0 \0o\0n\0:\0 \0g\0i\0t\0h\0u\0b\0.\0c\0o\0m\0/\0k\0e\0r\0n\0e\0l\0s\0t\0u\0b\0/\0F\0e\0r\0r\0u\0m\0 \0(\0G\0o\0)\0\12\0\33\0[\0"
	.ascii "0\0m\0\12\0\0\0"
	.align 8
.LC3:
	.ascii "\12\0\33\0[\0"
	.ascii "1\0m\0\33\0[\0"
	.ascii "9\0"
	.ascii "6\0m\0 \0 \0F\0e\0r\0r\0u\0m\0/\0C\0 \0\24  \0W\0i\0n\0d\0o\0w\0s\0 \0L\0P\0E\0 \0S\0u\0r\0f\0a\0c\0e\0 \0E\0n\0u\0m\0e\0r\0a\0t\0o\0r\0\12\0\33\0[\0"
	.ascii "0\0m\0 \0 \0C\0 \0p\0o\0r\0t\0 \0o\0f\0 \0g\0i\0t\0h\0u\0b\0.\0c\0o\0m\0/\0k\0e\0r\0n\0e\0l\0s\0t\0u\0b\0/\0F\0e\0r\0r\0u\0m\0\12\0\12\0 \0 \0U\0s\0a\0g\0e\0:\0 \0%\0s\0 \0[\0m\0o\0d\0u\0l\0e\0s\0]\0 \0[\0o\0p\0t\0i\0o\0n\0s\0]\0\12\0\12\0 \0 \0M\0o\0d\0u\0l\0e\0s\0 \0(\0a\0t\0 \0l\0e\0a\0s\0t\0 \0o\0n\0e\0 \0r\0e\0q\0u\0i\0r\0e\0d\0,\0 \0o\0r\0 \0-\0-\0A\0L\0L\0)\0:\0\12\0 \0 \0 \0 \0-\0-\0S\0E\0R\0V\0I\0C\0E\0S\0 \0 \0 \0 \0 \0S\0e\0r\0v\0i\0c\0e\0 \0m\0i\0s\0c\0o\0n\0f\0i\0g\0u\0r\0a\0t\0i\0o\0n\0s\0 \0(\0u\0n\0q\0u\0o\0t\0e\0d\0 \0p\0a\0t\0h\0s\0,\0 \0w\0e\0a\0k\0 \0D\0A\0C\0L\0s\0)\0\12\0 \0 \0 \0 \0-\0-\0T\0O\0K\0E\0N\0S\0 \0 \0 \0 \0 \0 \0 \0P\0r\0o\0c\0e\0s\0s\0 \0t\0o\0k\0e\0n\0 \0p\0r\0i\0v\0i\0l\0e\0g\0e\0 \0s\0c\0o\0r\0i\0n\0g\0\12\0 \0 \0 \0 \0-\0-\0C\0L\0S\0I\0D\0 \0 \0 \0 \0 \0 \0 \0 \0C\0O\0M\0 \0h\0i\0j\0a\0c\0k\0 \0c\0a\0n\0d\0i\0d\0a\0t\0e\0s\0 \0(\0H\0K\0C\0U\0 \0o\0v\0e\0r\0r\0i\0d\0e\0 \0m\0i\0s\0s\0i\0n\0g\0)\0\12\0 \0 \0 \0 \0-\0-\0P\0I\0P\0E\0S\0 \0 \0 \0 \0 \0 \0 \0 \0N\0a\0m\0e\0d\0 \0p\0i\0p\0e\0 \0s\0e\0c\0u\0r\0i\0t\0y\0 \0s\0u\0r\0f\0a\0c\0e\0\12\0 \0 \0 \0 \0-\0-\0D\0L\0L\0S\0E\0A\0R\0C\0H\0 \0 \0 \0 \0D\0L\0L\0 \0s\0e\0a\0r\0c\0h\0 \0p\0a\0t\0h\0 \0&\0 \0K\0n\0o\0w\0n\0D\0L\0L\0s\0 \0a\0n\0a\0l\0y\0s\0i\0s\0\12\0 \0 \0 \0 \0-\0-\0R\0E\0G\0I\0S\0T\0R\0Y\0 \0 \0 \0 \0 \0R\0e\0g\0i\0s\0t\0r\0y\0 \0p\0e\0r\0m\0i\0s\0s\0i\0o\0n\0 \0L\0P\0E\0 \0c\0h\0e\0c\0k\0s\0\12\0 \0 \0 \0 \0-\0-\0S\0C\0H\0E\0D\0U\0L\0E\0D\0 \0 \0 \0 \0S\0c\0h\0e\0d\0u\0l\0e\0d\0 \0t\0a\0s\0k\0 \0m\0i\0s\0c\0o\0n\0f\0i\0g\0u\0r\0a\0t\0i\0o\0n\0\12\0 \0 \0 \0 \0-\0-\0D\0R\0I\0V\0E\0R\0S\0 \0 \0 \0 \0 \0 \0K\0e\0r\0n\0e\0l\0 \0d\0r\0i\0v\0e\0r\0 \0e\0n\0u\0m\0e\0r\0a\0t\0i\0o\0n\0\12\0 \0 \0 \0 \0-\0-\0E\0N\0V\0 \0 \0 \0 \0 \0 \0 \0 \0 \0 \0E\0n\0v\0i\0r\0o\0n\0m\0e\0n\0t\0 \0v\0a\0r\0i\0a\0b\0l\0e\0 \0s\0u\0r\0f\0a\0c\0e\0\12\0 \0 \0 \0 \0-\0-\0P\0E\0R\0F\0L\0I\0B\0 \0 \0 \0 \0 \0 \0P\0e\0r\0f\0o\0r\0m\0a\0n\0c\0e\0 \0c\0o\0u\0n\0t\0e\0r\0 \0D\0L\0L\0 \0w\0r\0i\0t\0a\0b\0i\0l\0i\0t\0y\0 \0(\0u\0n\0d\0e\0r\0e\0x\0p\0l\0o\0r\0e\0d\0)\0\12\0 \0 \0 \0 \0-\0-\0C\0O\0M\0S\0U\0R\0R\0 \0 \0 \0 \0 \0 \0C\0O\0M\0 \0S\0u\0r\0r\0o\0g\0a\0t\0e\0 \0(\0d\0l\0l\0h\0o\0s\0t\0.\0e\0x\0e\0)\0 \0D\0L\0L\0 \0a\0u\0d\0i\0t\0\12\0 \0 \0 \0 \0-\0-\0E\0T\0W\0 \0 \0 \0 \0 \0 \0 \0 \0 \0 \0E\0T\0W\0 \0p\0r\0o\0v\0i\0d\0e\0r\0 \0D\0L\0L\0 \0w\0r\0i\0t\0a\0b\0i\0l\0i\0t\0y\0 \0(\0"
	.ascii "0\0-\0d\0a\0y\0 \0s\0u\0r\0f\0a\0c\0e\0)\0\12\0 \0 \0 \0 \0-\0-\0O\0B\0J\0N\0S\0 \0 \0 \0 \0 \0 \0 \0 \0N\0T\0 \0O\0b\0j\0e\0c\0t\0 \0N\0a\0m\0e\0s\0p\0a\0c\0e\0 \0d\0i\0r\0e\0c\0t\0o\0r\0y\0 \0A\0C\0L\0 \0a\0u\0d\0i\0t\0 \0(\0n\0o\0v\0e\0l\0)\0\12\0 \0 \0 \0 \0-\0-\0T\0O\0C\0T\0O\0U\0 \0 \0 \0 \0 \0 \0 \0S\0h\0a\0r\0e\0d\0-\0w\0r\0i\0t\0e\0 \0d\0i\0r\0 \0/\0 \0o\0p\0l\0o\0c\0k\0 \0r\0a\0c\0e\0 \0s\0u\0r\0f\0a\0c\0e\0\12\0 \0 \0 \0 \0-\0-\0P\0R\0I\0N\0T\0 \0 \0 \0 \0 \0 \0 \0"
	.ascii " \0P\0r\0i\0n\0t\0 \0m\0o\0n\0i\0t\0o\0r\0/\0p\0r\0o\0c\0e\0s\0s\0o\0r\0 \0D\0L\0L\0s\0 \0(\0P\0r\0i\0n\0t\0N\0i\0g\0h\0t\0m\0a\0r\0e\0 \0c\0l\0a\0s\0s\0)\0\12\0 \0 \0 \0 \0-\0-\0L\0S\0A\0 \0 \0 \0 \0 \0 \0 \0 \0 \0 \0L\0S\0A\0 \0a\0u\0t\0h\0/\0s\0e\0c\0u\0r\0i\0t\0y\0 \0p\0a\0c\0k\0a\0g\0e\0 \0D\0L\0L\0s\0 \0(\0l\0s\0a\0s\0s\0.\0e\0x\0e\0)\0\12\0 \0 \0 \0 \0-\0-\0A\0P\0P\0C\0E\0R\0T\0 \0 \0 \0 \0 \0 \0A\0p\0p\0C\0e\0r\0t\0 \0D\0L\0L\0s\0 \0(\0e\0v\0e\0r\0y\0 \0C\0r\0e\0a\0t\0e\0P\0r\0o\0c\0e\0s\0s\0)\0\12\0 \0 \0 \0 \0-\0-\0C\0R\0E\0D\0P\0R\0O\0V\0 \0 \0 \0 \0 \0C\0r\0e\0d\0e\0n\0t\0i\0a\0l\0 \0p\0r\0o\0v\0i\0d\0e\0r\0 \0D\0L\0L\0s\0 \0(\0l\0o\0g\0o\0n\0u\0i\0.\0e\0x\0e\0/\0S\0Y\0S\0T\0E\0M\0)\0\12\0 \0 \0 \0 \0-\0-\0N\0E\0T\0P\0R\0O\0V\0 \0 \0 \0 \0 \0 \0N\0e\0t\0w\0o\0r\0k\0 \0p\0r\0o\0v\0i\0d\0e\0r\0 \0D\0L\0L\0s\0 \0(\0c\0r\0e\0d\0e\0n\0t\0i\0a\0l\0 \0i\0n\0t\0e\0r\0c\0e\0p\0t\0)\0\12\0 \0 \0 \0 \0-\0-\0A\0U\0T\0O\0R\0U\0N\0 \0 \0 \0 \0 \0 \0S\0t\0a\0r\0t\0u\0p\0 \0i\0t\0e\0m\0s\0 \0w\0i\0t\0h\0 \0w\0r\0i\0t\0a\0b\0l\0e\0 \0p\0a\0t\0h\0s\0\12\0 \0 \0 \0 \0-\0-\0W\0M\0I\0P\0R\0O\0V\0 \0 \0 \0 \0 \0 \0W\0M\0I\0 \0p\0r\0o\0v\0i\0d\0e\0r\0 \0D\0L\0L\0s\0 \0(\0W\0m\0i\0P\0r\0v\0S\0E\0.\0e\0x\0e\0/\0S\0Y\0S\0T\0E\0M\0)\0\12\0 \0 \0 \0 \0-\0-\0A\0L\0P\0C\0 \0 \0 \0 \0 \0 \0 \0 \0 \0A\0L\0P\0C\0 \0p\0o\0r\0t\0 \0D\0A\0C\0L\0 \0a\0u\0d\0i\0t\0 \0(\0n\0o\0v\0e\0l\0 \0\24  \0n\0o\0 \0p\0u\0b\0l\0i\0c\0 \0t\0o\0o\0l\0 \0d\0o\0e\0s\0 \0t\0h\0i\0s\0)\0\12\0 \0 \0 \0 \0-\0-\0R\0P\0C\0S\0V\0C\0 \0 \0 \0 \0 \0 \0 \0R\0P\0C\0 \0e\0n\0d\0p\0o\0i\0n\0t\0 \0m\0a\0p\0p\0e\0r\0 \0+\0 \0s\0e\0r\0v\0e\0r\0 \0a\0c\0c\0o\0u\0n\0t\0 \0+\0 \0u\0n\0a\0u\0t\0h\0 \0a\0c\0c\0e\0s\0s\0 \0t\0e\0s\0t\0\12\0 \0 \0 \0 \0-\0-\0D\0R\0I\0V\0E\0R\0I\0O\0C\0T\0L\0 \0 \0K\0e\0r\0n\0e\0l\0 \0d\0r\0i\0v\0e\0r\0 \0I\0O\0C\0T\0L\0 \0s\0u\0r\0f\0a\0c\0e\0 \0+\0 \0B\0Y\0O\0V\0D\0 \0d\0r\0i\0v\0e\0r\0 \0d\0e\0t\0e\0c\0t\0i\0o\0n\0\12\0 \0 \0 \0 \0-\0-\0I\0M\0P\0E\0R\0S\0O\0N\0A\0T\0E\0 \0 \0D\0a\0n\0g\0e\0r\0o\0u\0s\0 \0t\0o\0k\0e\0n\0 \0p\0r\0i\0v\0i\0l\0e\0g\0e\0 \0a\0u\0d\0i\0t\0 \0(\0P\0o\0t\0a\0t\0o\0/\0S\0e\0L\0o\0a\0d\0D\0r\0i\0v\0e\0r\0/\0S\0e\0T\0c\0b\0)\0\12\0 \0 \0 \0 \0-\0-\0C\0O\0M\0E\0L\0E\0 \0 \0 \0 \0 \0 \0 \0C\0O\0M\0 \0a\0u\0t\0o\0-\0e\0l\0e\0v\0a\0t\0i\0o\0n\0 \0s\0u\0r\0f\0a\0c\0e\0 \0(\0U\0A\0C\0 \0b\0y\0p\0a\0s\0s\0 \0/\0 \0l\0o\0g\0i\0c\0-\0b\0u\0g\0 \0s\0u\0r\0f\0a\0c\0e\0)\0\12\0 \0 \0 \0 \0-\0-\0S\0E\0C\0T\0I\0O\0N\0S\0 \0 \0 \0 \0 \0N\0a\0m\0e\0d\0 \0s\0e\0c\0t\0i\0o\0n\0 \0o\0b\0j\0e\0c\0t\0 \0A\0C\0L\0 \0a\0u\0d\0i\0t\0 \0(\0s\0h\0a\0r\0e\0d\0-\0m\0e\0m\0o\0r\0y\0 \0l\0o\0g\0i\0c\0 \0b\0u\0g\0s\0)\0\12\0\12\0 \0 \0E\0x\0t\0e\0n\0d\0e\0d\0 \0"
	.ascii "0\0-\0d\0a\0y\0 \0M\0o\0d\0u\0l\0e\0s\0 \0(\0n\0o\0v\0e\0l\0 \0s\0u\0r\0f\0a\0c\0e\0s\0,\0 \0n\0o\0 \0p\0u\0b\0l\0i\0c\0 \0t\0o\0o\0l\0 \0c\0o\0v\0e\0r\0s\0)\0:\0\12\0 \0 \0 \0 \0-\0-\0W\0M\0S\0G\0 \0 \0 \0 \0 \0 \0 \0 \0 \0W\0M\0_\0C\0O\0P\0Y\0D\0A\0T\0A\0/\0W\0M\0_\0D\0D\0E\0 \0c\0r\0o\0s\0s\0-\0I\0L\0 \0w\0i\0n\0d\0o\0w\0 \0m\0e\0s\0s\0a\0g\0e\0 \0s\0u\0"
	.ascii "r\0f\0a\0c\0e\0\12\0 \0 \0 \0 \0-\0-\0M\0S\0I\0I\0N\0S\0T\0A\0L\0L\0 \0 \0 \0A\0l\0w\0a\0y\0s\0I\0n\0s\0t\0a\0l\0l\0E\0l\0e\0v\0a\0t\0e\0d\0 \0M\0S\0I\0 \0p\0o\0l\0i\0c\0y\0 \0(\0S\0Y\0S\0T\0E\0M\0 \0v\0i\0a\0 \0M\0S\0I\0)\0\12\0 \0 \0 \0 \0-\0-\0A\0P\0P\0I\0N\0I\0T\0D\0L\0L\0 \0 \0 \0A\0p\0p\0I\0n\0i\0t\0_\0D\0L\0L\0s\0 \0i\0n\0j\0e\0c\0t\0i\0o\0n\0 \0s\0u\0r\0f\0a\0c\0e\0 \0(\0l\0o\0a\0d\0e\0d\0 \0b\0y\0 \0e\0v\0e\0r\0y\0 \0p\0r\0o\0c\0e\0s\0s\0)\0\12\0 \0 \0 \0 \0-\0-\0U\0A\0C\0B\0Y\0P\0A\0S\0S\0 \0 \0 \0 \0U\0A\0C\0 \0b\0y\0p\0a\0s\0s\0 \0v\0i\0a\0 \0H\0K\0C\0U\0 \0c\0l\0a\0s\0s\0 \0h\0i\0j\0a\0c\0k\0 \0(\0f\0o\0d\0h\0e\0l\0p\0e\0r\0/\0e\0v\0e\0n\0t\0v\0w\0r\0/\0e\0t\0c\0)\0\12\0 \0 \0 \0 \0-\0-\0L\0O\0C\0A\0L\0S\0V\0C\0 \0 \0 \0 \0 \0L\0o\0c\0a\0l\0h\0o\0s\0t\0 \0p\0r\0i\0v\0i\0l\0e\0g\0e\0d\0 \0T\0C\0P\0 \0s\0e\0r\0v\0i\0c\0e\0 \0s\0c\0a\0n\0 \0(\0g\0R\0P\0C\0/\0W\0e\0b\0S\0o\0c\0k\0e\0t\0/\0H\0T\0T\0P\0)\0\12\0 \0 \0 \0 \0-\0-\0W\0E\0R\0 \0 \0 \0 \0 \0 \0 \0 \0 \0 \0W\0E\0R\0/\0A\0e\0D\0e\0b\0u\0g\0 \0J\0I\0T\0 \0d\0e\0b\0u\0g\0g\0e\0r\0 \0+\0 \0c\0r\0a\0s\0h\0 \0h\0a\0n\0d\0l\0e\0r\0 \0D\0L\0L\0 \0s\0u\0r\0f\0a\0c\0e\0\12\0 \0 \0 \0 \0-\0-\0S\0D\0B\0 \0 \0 \0 \0 \0 \0 \0 \0 \0 \0A\0p\0p\0C\0o\0m\0p\0a\0t\0 \0s\0h\0i\0m\0 \0d\0a\0t\0a\0b\0a\0s\0e\0 \0i\0n\0j\0e\0c\0t\0i\0o\0n\0 \0(\0D\0u\0q\0u\0 \0"
	.ascii "2\0.\0"
	.ascii "0\0 \0t\0e\0c\0h\0n\0i\0q\0u\0e\0)\0\12\0 \0 \0 \0 \0-\0-\0P\0R\0O\0C\0D\0A\0C\0L\0 \0 \0 \0 \0 \0P\0r\0o\0c\0e\0s\0s\0 \0D\0A\0C\0L\0 \0a\0u\0d\0i\0t\0 \0(\0D\0U\0P\0_\0H\0A\0N\0D\0L\0E\0/\0V\0M\0_\0W\0R\0I\0T\0E\0 \0o\0n\0 \0S\0Y\0S\0T\0E\0M\0 \0p\0r\0o\0c\0s\0)\0\12\0 \0 \0 \0 \0-\0-\0D\0C\0O\0M\0H\0I\0J\0A\0C\0K\0 \0 \0 \0D\0C\0O\0M\0 \0L\0o\0c\0a\0l\0S\0e\0r\0v\0e\0r\0"
	.ascii "3\0"
	.ascii "2\0 \0E\0X\0E\0 \0p\0a\0t\0h\0 \0h\0i\0j\0a\0c\0k\0i\0n\0g\0 \0(\0R\0u\0n\0A\0s\0=\0S\0Y\0S\0T\0E\0M\0)\0\12\0 \0 \0 \0 \0-\0-\0S\0H\0E\0L\0L\0E\0X\0T\0 \0 \0 \0 \0 \0S\0h\0e\0l\0l\0 \0e\0x\0t\0e\0n\0s\0i\0o\0n\0 \0D\0L\0L\0 \0w\0r\0i\0t\0a\0b\0i\0l\0i\0t\0y\0 \0(\0e\0x\0p\0l\0o\0r\0e\0r\0.\0e\0x\0e\0 \0H\0i\0g\0h\0 \0I\0L\0)\0\12\0 \0 \0 \0 \0-\0-\0B\0I\0T\0S\0 \0 \0 \0 \0 \0 \0 \0 \0 \0B\0I\0T\0S\0 \0s\0e\0r\0v\0i\0c\0e\0 \0n\0o\0t\0i\0f\0i\0c\0a\0t\0i\0o\0n\0 \0+\0 \0p\0l\0u\0g\0i\0n\0 \0D\0L\0L\0 \0s\0u\0r\0f\0a\0c\0e\0\12\0 \0 \0 \0 \0-\0-\0T\0E\0L\0E\0M\0E\0T\0R\0Y\0 \0 \0 \0 \0D\0i\0a\0g\0T\0r\0a\0c\0k\0 \0p\0e\0r\0f\0 \0c\0o\0u\0n\0t\0e\0r\0 \0D\0L\0L\0 \0+\0 \0t\0e\0l\0e\0m\0e\0t\0r\0y\0 \0s\0c\0h\0e\0d\0u\0l\0e\0d\0 \0t\0a\0s\0k\0s\0\12\0 \0 \0 \0 \0-\0-\0S\0E\0C\0L\0O\0G\0O\0N\0 \0 \0 \0 \0 \0S\0e\0c\0o\0n\0d\0a\0r\0y\0 \0L\0o\0g\0o\0n\0 \0s\0e\0c\0l\0o\0g\0o\0n\0 \0S\0Y\0S\0T\0E\0M\0 \0t\0o\0k\0e\0n\0 \0l\0e\0a\0k\0a\0g\0e\0\12\0 \0 \0 \0 \0-\0-\0F\0O\0N\0T\0P\0R\0O\0V\0 \0 \0 \0 \0 \0F\0o\0n\0t\0 \0p\0r\0o\0v\0i\0d\0e\0r\0 \0D\0L\0L\0 \0+\0 \0f\0o\0n\0t\0 \0c\0a\0c\0h\0e\0 \0+\0 \0p\0e\0r\0-\0u\0s\0e\0r\0 \0f\0o\0n\0t\0 \0s\0u\0r\0f\0a\0c\0e\0\12\0 \0 \0 \0 \0-\0-\0H\0A\0N\0D\0L\0E\0S\0 \0 \0 \0 \0 \0 \0I\0n\0h\0e\0r\0i\0t\0a\0b\0l\0e\0 \0h\0a\0n\0d\0l\0e\0 \0l\0e\0a\0k\0a\0g\0e\0 \0"
	.ascii "f\0r\0o\0m\0 \0S\0Y\0S\0T\0E\0M\0 \0p\0r\0o\0c\0e\0s\0s\0e\0s\0\12\0 \0 \0 \0 \0-\0-\0D\0O\0T\0N\0E\0T\0C\0L\0R\0 \0 \0 \0 \0C\0O\0R\0_\0P\0R\0O\0F\0I\0L\0E\0R\0 \0D\0L\0L\0 \0i\0n\0j\0e\0c\0t\0i\0o\0n\0 \0i\0n\0t\0o\0 \0.\0N\0E\0T\0 \0S\0Y\0S\0T\0E\0M\0 \0s\0e\0r\0v\0i\0c\0e\0s\0\12\0 \0 \0 \0 \0-\0-\0C\0O\0M\0P\0L\0U\0S\0 \0 \0 \0 \0 \0 \0C\0O\0M\0+\0 \0s\0e\0r\0v\0e\0r\0 \0a\0p\0p\0 \0D\0L\0L\0 \0w\0r\0i\0t\0a\0b\0i\0l\0i\0t\0y\0 \0(\0e\0n\0t\0e\0r\0p\0r\0i\0s\0e\0 \0m\0i\0d\0d\0l\0e\0w\0a\0r\0e\0)\0\12\0 \0 \0 \0 \0-\0-\0Z\0E\0R\0O\0D\0A\0Y\0 \0 \0 \0 \0 \0 \0"
	.ascii "0\0-\0d\0a\0y\0 \0r\0e\0s\0e\0a\0r\0c\0h\0 \0m\0o\0d\0e\0:\0 \0e\0n\0a\0b\0l\0e\0 \0a\0l\0l\0 \0n\0o\0v\0e\0l\0 \0m\0o\0d\0u\0l\0e\0s\0 \0+\0 \0g\0u\0i\0d\0a\0n\0c\0e\0\12\0 \0 \0 \0 \0-\0-\0A\0L\0L\0 \0 \0 \0 \0 \0 \0 \0 \0 \0 \0R\0u\0n\0 \0a\0l\0l\0 \0"
	.ascii "4\0"
	.ascii "4\0 \0m\0o\0d\0u\0l\0e\0s\0\12\0\12\0 \0 \0O\0p\0t\0i\0o\0n\0s\0:\0\12\0 \0 \0 \0 \0-\0-\0O\0U\0T\0P\0U\0T\0 \0<\0f\0i\0l\0e\0>\0 \0 \0W\0r\0i\0t\0e\0 \0f\0i\0n\0d\0i\0n\0g\0s\0 \0t\0o\0 \0f\0i\0l\0e\0 \0(\0i\0n\0 \0a\0d\0d\0i\0t\0i\0o\0n\0 \0t\0o\0 \0s\0t\0d\0o\0u\0t\0)\0\12\0 \0 \0 \0 \0-\0-\0N\0O\0-\0C\0O\0L\0O\0R\0 \0 \0 \0 \0 \0 \0 \0D\0i\0s\0a\0b\0l\0e\0 \0A\0N\0S\0I\0 \0c\0o\0l\0o\0u\0r\0 \0o\0u\0t\0p\0u\0t\0\12\0\12\0 \0 \0E\0x\0a\0m\0p\0l\0e\0s\0:\0\12\0 \0 \0 \0 \0f\0e\0r\0r\0u\0m\0.\0e\0x\0e\0 \0-\0-\0A\0L\0L\0 \0-\0-\0O\0U\0T\0P\0U\0T\0 \0r\0e\0p\0o\0r\0t\0.\0t\0x\0t\0\12\0 \0 \0 \0 \0f\0e\0r\0r\0u\0m\0.\0e\0x\0e\0 \0-\0-\0T\0O\0K\0E\0N\0S\0 \0-\0-\0S\0E\0R\0V\0I\0C\0E\0S\0\12\0 \0 \0 \0 \0f\0e\0r\0r\0u\0m\0.\0e\0x\0e\0 \0-\0-\0C\0L\0S\0I\0D\0 \0-\0-\0N\0O\0-\0C\0O\0L\0O\0R\0 \0>\0 \0c\0l\0s\0i\0d\0_\0c\0a\0n\0d\0i\0d\0a\0t\0e\0s\0.\0t\0x\0t\0\12\0\12\0\0\0"
	.align 2
.LC4:
	.ascii "-\0-\0A\0L\0L\0\0\0"
	.align 2
.LC5:
	.ascii "-\0-\0S\0E\0R\0V\0I\0C\0E\0S\0\0\0"
	.align 2
.LC6:
	.ascii "-\0-\0T\0O\0K\0E\0N\0S\0\0\0"
	.align 2
.LC7:
	.ascii "-\0-\0C\0L\0S\0I\0D\0\0\0"
	.align 2
.LC8:
	.ascii "-\0-\0P\0I\0P\0E\0S\0\0\0"
	.align 2
.LC9:
	.ascii "-\0-\0D\0L\0L\0S\0E\0A\0R\0C\0H\0\0\0"
	.align 2
.LC10:
	.ascii "-\0-\0R\0E\0G\0I\0S\0T\0R\0Y\0\0\0"
	.align 2
.LC11:
	.ascii "-\0-\0S\0C\0H\0E\0D\0U\0L\0E\0D\0\0\0"
	.align 2
.LC12:
	.ascii "-\0-\0D\0R\0I\0V\0E\0R\0S\0\0\0"
	.align 2
.LC13:
	.ascii "-\0-\0E\0N\0V\0\0\0"
	.align 2
.LC14:
	.ascii "-\0-\0P\0E\0R\0F\0L\0I\0B\0\0\0"
	.align 2
.LC15:
	.ascii "-\0-\0C\0O\0M\0S\0U\0R\0R\0\0\0"
	.align 2
.LC16:
	.ascii "-\0-\0E\0T\0W\0\0\0"
	.align 2
.LC17:
	.ascii "-\0-\0O\0B\0J\0N\0S\0\0\0"
	.align 2
.LC18:
	.ascii "-\0-\0T\0O\0C\0T\0O\0U\0\0\0"
	.align 2
.LC19:
	.ascii "-\0-\0P\0R\0I\0N\0T\0\0\0"
	.align 2
.LC20:
	.ascii "-\0-\0L\0S\0A\0\0\0"
	.align 2
.LC21:
	.ascii "-\0-\0A\0P\0P\0C\0E\0R\0T\0\0\0"
	.align 2
.LC22:
	.ascii "-\0-\0C\0R\0E\0D\0P\0R\0O\0V\0\0\0"
	.align 2
.LC23:
	.ascii "-\0-\0N\0E\0T\0P\0R\0O\0V\0\0\0"
	.align 2
.LC24:
	.ascii "-\0-\0A\0U\0T\0O\0R\0U\0N\0\0\0"
	.align 2
.LC25:
	.ascii "-\0-\0W\0M\0I\0P\0R\0O\0V\0\0\0"
	.align 2
.LC26:
	.ascii "-\0-\0A\0L\0P\0C\0\0\0"
	.align 2
.LC27:
	.ascii "-\0-\0R\0P\0C\0S\0V\0C\0\0\0"
	.align 2
.LC28:
	.ascii "-\0-\0D\0R\0I\0V\0E\0R\0I\0O\0C\0T\0L\0\0\0"
	.align 2
.LC29:
	.ascii "-\0-\0I\0M\0P\0E\0R\0S\0O\0N\0A\0T\0E\0\0\0"
	.align 2
.LC30:
	.ascii "-\0-\0C\0O\0M\0E\0L\0E\0\0\0"
	.align 2
.LC31:
	.ascii "-\0-\0S\0E\0C\0T\0I\0O\0N\0S\0\0\0"
	.align 2
.LC32:
	.ascii "-\0-\0Z\0E\0R\0O\0D\0A\0Y\0\0\0"
	.align 2
.LC33:
	.ascii "-\0-\0W\0M\0S\0G\0\0\0"
	.align 2
.LC34:
	.ascii "-\0-\0M\0S\0I\0I\0N\0S\0T\0A\0L\0L\0\0\0"
	.align 2
.LC35:
	.ascii "-\0-\0A\0P\0P\0I\0N\0I\0T\0D\0L\0L\0\0\0"
	.align 2
.LC36:
	.ascii "-\0-\0U\0A\0C\0B\0Y\0P\0A\0S\0S\0\0\0"
	.align 2
.LC37:
	.ascii "-\0-\0L\0O\0C\0A\0L\0S\0V\0C\0\0\0"
	.align 2
.LC38:
	.ascii "-\0-\0W\0E\0R\0\0\0"
	.align 2
.LC39:
	.ascii "-\0-\0S\0D\0B\0\0\0"
	.align 2
.LC40:
	.ascii "-\0-\0P\0R\0O\0C\0D\0A\0C\0L\0\0\0"
	.align 2
.LC41:
	.ascii "-\0-\0D\0C\0O\0M\0H\0I\0J\0A\0C\0K\0\0\0"
	.align 2
.LC42:
	.ascii "-\0-\0S\0H\0E\0L\0L\0E\0X\0T\0\0\0"
	.align 2
.LC43:
	.ascii "-\0-\0B\0I\0T\0S\0\0\0"
	.align 2
.LC44:
	.ascii "-\0-\0T\0E\0L\0E\0M\0E\0T\0R\0Y\0\0\0"
	.align 2
.LC45:
	.ascii "-\0-\0S\0E\0C\0L\0O\0G\0O\0N\0\0\0"
	.align 2
.LC46:
	.ascii "-\0-\0F\0O\0N\0T\0P\0R\0O\0V\0\0\0"
	.align 2
.LC47:
	.ascii "-\0-\0H\0A\0N\0D\0L\0E\0S\0\0\0"
	.align 2
.LC48:
	.ascii "-\0-\0D\0O\0T\0N\0E\0T\0C\0L\0R\0\0\0"
	.align 2
.LC49:
	.ascii "-\0-\0C\0O\0M\0P\0L\0U\0S\0\0\0"
	.align 2
.LC50:
	.ascii "-\0-\0I\0F\0E\0O\0\0\0"
	.align 2
.LC51:
	.ascii "-\0-\0W\0I\0N\0L\0O\0G\0O\0N\0\0\0"
	.align 2
.LC52:
	.ascii "-\0-\0L\0S\0A\0N\0O\0T\0I\0F\0Y\0\0\0"
	.align 2
.LC53:
	.ascii "-\0-\0H\0I\0V\0E\0N\0M\0\0\0"
	.align 2
.LC54:
	.ascii "-\0-\0T\0I\0M\0E\0P\0R\0O\0V\0\0\0"
	.align 2
.LC55:
	.ascii "-\0-\0A\0C\0T\0I\0V\0E\0S\0E\0T\0U\0P\0\0\0"
	.align 2
.LC56:
	.ascii "-\0-\0C\0R\0Y\0P\0T\0O\0P\0R\0O\0V\0\0\0"
	.align 2
.LC57:
	.ascii "-\0-\0P\0S\0H\0I\0J\0A\0C\0K\0\0\0"
	.align 2
.LC58:
	.ascii "-\0-\0E\0A\0P\0P\0R\0O\0V\0\0\0"
	.align 2
.LC59:
	.ascii "-\0-\0V\0S\0S\0W\0R\0I\0T\0E\0R\0\0\0"
	.align 2
.LC60:
	.ascii "-\0-\0U\0A\0C\0P\0O\0L\0I\0C\0Y\0\0\0"
	.align 2
.LC61:
	.ascii "-\0-\0S\0Y\0S\0V\0O\0L\0\0\0"
	.align 2
.LC62:
	.ascii "-\0-\0S\0E\0N\0S\0S\0U\0B\0S\0\0\0"
	.align 2
.LC63:
	.ascii "-\0-\0W\0I\0N\0S\0E\0A\0R\0C\0H\0\0\0"
	.align 2
.LC64:
	.ascii "-\0-\0M\0M\0C\0O\0D\0E\0C\0\0\0"
	.align 2
.LC65:
	.ascii "-\0-\0M\0S\0D\0T\0C\0\0\0"
	.align 2
.LC66:
	.ascii "-\0-\0I\0I\0S\0\0\0"
	.align 2
.LC67:
	.ascii "-\0-\0B\0I\0O\0W\0B\0F\0\0\0"
	.align 2
.LC68:
	.ascii "-\0-\0W\0I\0N\0S\0O\0C\0K\0N\0S\0P\0\0\0"
	.align 2
.LC69:
	.ascii "-\0-\0C\0O\0M\0T\0R\0E\0A\0T\0A\0S\0\0\0"
	.align 2
.LC70:
	.ascii "-\0-\0M\0F\0T\0R\0A\0N\0S\0F\0O\0R\0M\0\0\0"
	.align 2
.LC71:
	.ascii "-\0-\0L\0A\0P\0S\0C\0G\0\0\0"
	.align 2
.LC72:
	.ascii "-\0-\0S\0Y\0M\0L\0I\0N\0K\0P\0R\0I\0M\0\0\0"
	.align 2
.LC73:
	.ascii "-\0-\0O\0P\0L\0O\0C\0K\0R\0A\0C\0E\0\0\0"
	.align 2
.LC74:
	.ascii "-\0-\0S\0Y\0M\0L\0I\0N\0K\0C\0A\0N\0\0\0"
	.align 2
.LC75:
	.ascii "-\0-\0N\0O\0-\0C\0O\0L\0O\0R\0\0\0"
	.align 2
.LC76:
	.ascii "-\0-\0O\0U\0T\0P\0U\0T\0\0\0"
	.align 2
.LC77:
	.ascii "-\0-\0h\0e\0l\0p\0\0\0"
	.align 2
.LC78:
	.ascii "-\0h\0\0\0"
	.align 2
.LC79:
	.ascii "/\0?\0\0\0"
	.align 8
.LC80:
	.ascii "w\0,\0 \0c\0c\0s\0=\0U\0T\0F\0-\0"
	.ascii "1\0"
	.ascii "6\0L\0E\0\0\0"
	.align 8
.LC81:
	.ascii "[\0!\0]\0 \0C\0a\0n\0n\0o\0t\0 \0o\0p\0e\0n\0 \0o\0u\0t\0p\0u\0t\0 \0f\0i\0l\0e\0:\0 \0%\0s\0\12\0\0\0"
	.align 8
.LC82:
	.ascii " \0 \0H\0o\0s\0t\0 \0:\0 \0%\0s\0\\\0%\0s\0\12\0\0\0"
	.align 8
.LC83:
	.ascii " \0 \0O\0S\0 \0 \0 \0:\0 \0W\0i\0n\0d\0o\0w\0s\0 \0%\0l\0u\0.\0%\0l\0u\0 \0B\0u\0i\0l\0d\0 \0%\0l\0u\0\12\0\0\0"
	.align 2
.LC84:
	.ascii " \0 \0A\0d\0m\0i\0n\0:\0 \0%\0s\0\12\0\0\0"
	.align 2
.LC85:
	.ascii "\12\0\0\0"
	.align 8
.LC86:
	.ascii "\33\0[\0"
	.ascii "1\0m\0\33\0[\0"
	.ascii "9\0"
	.ascii "5\0m\0\12\0 \0 \0T%P%P%P%P%P%P%P%P%P%P%P%P%P%P%P%P%P%P%P%P%P%P%P%P%P%P%P%P%P%P%P%P%P%P%P%P%P%P%P%P%P%P%P%P%P%P%P%P%P%P%P%P%P%P%P%P%P%P%W%\12\0 \0 \0Q% \0 \0 \0 \0 \0 \0 \0 \0 \0"
	.ascii "0\0-\0D\0A\0Y\0 \0R\0E\0S\0E\0A\0R\0C\0H\0 \0M\0O\0D\0E\0 \0 \0(\0-\0-\0Z\0E\0R\0O\0D\0A\0Y\0)\0 \0 \0 \0 \0 \0 \0 \0 \0 \0 \0 \0 \0 \0 \0 \0 \0Q%\12\0 \0 \0Z%P%P%P%P%P%P%P%P%P%P%P%P%P%P%P%P%P%P%P%P%P%P%P%P%P%P%P%P%P%P%P%P%P%P%P%P%P%P%P%P%P%P%P%P%P%P%P%P%P%P%P%P%P%P%P%P%P%P%]%\12\0\33\0[\0"
	.ascii "0\0m\0\33\0[\0"
	.ascii "9\0"
	.ascii "3\0m\0 \0 \0R\0u\0n\0n\0i\0n\0g\0 \0a\0l\0l\0 \0n\0o\0v\0e\0l\0 \0a\0t\0t\0a\0c\0k\0-\0s\0u\0r\0f\0a\0c\0e\0 \0m\0o\0d\0u\0l\0e\0s\0.\0\12\0 \0 \0E\0a\0c\0h\0 \0f\0i\0n\0d\0i\0n\0g\0 \0i\0s\0 \0a\0 \0C\0A\0N\0D\0I\0D\0A\0T\0E\0 \0\24  \0n\0o\0t\0 \0a\0 \0c\0o\0n\0f\0i\0r\0m\0e\0d\0 \0v\0u\0l\0n\0e\0r\0a\0b\0i\0l\0i\0t\0y\0.\0\12\0 \0 \0W\0o\0r\0k\0f\0l\0o\0w\0:\0 \0F\0e\0r\0r\0u\0m\0/\0C\0 \0\222! \0P\0r\0o\0c\0M\0o\0n\0 \0\222! \0I\0D\0A\0 \0P\0r\0o\0 \0\222! \0W\0i\0n\0D\0b\0g\0 \0\222! \0W\0i\0n\0A\0F\0L\0\12\0 \0 \0S\0e\0e\0:\0 \0d\0o\0c\0s\0/\0"
	.ascii "0\0D\0A\0Y\0_\0R\0E\0S\0E\0A\0R\0C\0H\0_\0W\0O\0R\0K\0F\0L\0O\0W\0.\0m\0d\0 \0f\0o\0r\0 \0f\0u\0l\0l\0 \0m\0e\0t\0h\0o\0d\0o\0l\0o\0g\0y\0.\0\12\0\12\0\33\0[\0"
	.ascii "0\0m\0\0\0"
	.align 8
.LC87:
	.ascii "\33\0[\0"
	.ascii "9\0"
	.ascii "2\0m\0 \0 \0[\0+\0]\0 \0S\0c\0a\0n\0 \0c\0o\0m\0p\0l\0e\0t\0e\0.\0\12\0\33\0[\0"
	.ascii "0\0m\0\0\0"
	.align 8
.LC88:
	.ascii " \0 \0[\0+\0]\0 \0S\0c\0a\0n\0 \0c\0o\0m\0p\0l\0e\0t\0e\0.\0\12\0\0\0"
	.align 8
.LC89:
	.ascii "\33\0[\0"
	.ascii "1\0m\0\33\0[\0"
	.ascii "9\0"
	.ascii "6\0m\0\12\0 \0 \0P%P%P%P%P%P%P%P%P%P%P%P%P%P%P%P%P%P%P%P%P%P%P% \0N\0E\0X\0T\0 \0S\0T\0E\0P\0S\0 \0P%P%P%P%P%P%P%P%P%P%P%P%P%P%P%P%P%P%P%P%P%P%P%P%\12\0\33\0[\0"
	.ascii "0\0m\0 \0 \0"
	.ascii "1\0.\0 \0R\0e\0v\0i\0e\0w\0 \0e\0a\0c\0h\0 \0C\0R\0I\0T\0I\0C\0A\0L\0/\0H\0I\0G\0H\0 \0f\0i\0n\0d\0i\0n\0g\0 \0a\0b\0o\0v\0e\0.\0\12\0 \0 \0"
	.ascii "2\0.\0 \0F\0o\0r\0 \0D\0L\0L\0/\0E\0X\0E\0 \0p\0a\0t\0h\0 \0f\0i\0n\0d\0i\0n\0g\0s\0:\0 \0c\0o\0n\0f\0i\0r\0m\0 \0w\0r\0i\0t\0a\0b\0i\0l\0i\0t\0y\0 \0i\0n\0 \0a\0 \0s\0h\0e\0l\0l\0,\0\12\0 \0 \0 \0 \0 \0t\0h\0e\0n\0 \0w\0r\0i\0t\0e\0 \0a\0 \0m\0i\0n\0i\0m\0a\0l\0 \0L\0P\0E\0 \0p\0a\0y\0l\0o\0a\0d\0 \0D\0L\0L\0.\0\12\0 \0 \0"
	.ascii "3\0.\0 \0F\0o\0r\0 \0A\0L\0P\0C\0/\0R\0P\0C\0 \0f\0i\0n\0d\0i\0n\0g\0s\0:\0 \0o\0p\0e\0n\0 \0i\0n\0 \0R\0p\0c\0V\0i\0e\0w\0 \0o\0r\0 \0P\0r\0o\0c\0e\0s\0s\0 \0H\0a\0c\0k\0e\0r\0,\0\12\0 \0 \0 \0 \0 \0i\0d\0e\0n\0t\0i\0f\0y\0 \0h\0o\0s\0t\0i\0n\0g\0 \0p\0r\0o\0c\0e\0s\0s\0,\0 \0l\0o\0a\0d\0 \0D\0L\0L\0 \0i\0n\0 \0I\0D\0A\0 \0P\0r\0o\0.\0\12\0 \0 \0"
	.ascii "4\0.\0 \0F\0o\0r\0 \0d\0r\0i\0v\0e\0r\0 \0I\0O\0C\0T\0L\0 \0f\0i\0n\0d\0i\0n\0g\0s\0:\0 \0e\0n\0u\0m\0e\0r\0a\0t\0e\0 \0I\0O\0C\0T\0L\0 \0c\0o\0d\0e\0s\0 \0i\0n\0 \0I\0D\0A\0,\0\12\0 \0 \0 \0 \0 \0f\0u\0z\0z\0 \0w\0i\0t\0h\0 \0W\0i\0n\0A\0F\0L\0 \0o\0r\0 \0c\0u\0s\0t\0o\0m\0 \0i\0o\0c\0t\0l\0 \0h\0a\0r\0n\0e\0s\0s\0.\0\12\0 \0 \0"
	.ascii "5\0.\0 \0F\0o\0r\0 \0r\0e\0g\0i\0s\0t\0r\0y\0 \0p\0e\0r\0s\0i\0s\0t\0e\0n\0c\0e\0 \0f\0i\0n\0d\0i\0n\0g\0s\0:\0 \0t\0e\0s\0t\0 \0w\0r\0i\0t\0e\0 \0a\0c\0c\0e\0s\0s\0,\0 \0t\0h\0e\0n\0\12\0 \0 \0 \0 \0 \0c\0r\0a\0f\0t\0 \0m\0i\0n\0i\0m\0a\0l\0 \0D\0L\0L\0 \0w\0i\0t\0h\0 \0r\0e\0q\0u\0i\0r\0e\0d\0 \0e\0x\0p\0o\0r\0t\0.\0\12\0 \0 \0"
	.ascii "6\0.\0 \0C\0o\0r\0r\0e\0l\0a\0t\0e\0 \0w\0i\0t\0h\0 \0P\0r\0o\0c\0M\0o\0n\0:\0 \0r\0u\0n\0 \0P\0r\0o\0c\0M\0o\0n\0 \0w\0i\0t\0h\0 \0f\0i\0l\0t\0e\0r\0s\0 \0f\0o\0r\0 \0t\0h\0e\0\12\0 \0 \0 \0 \0 \0t\0a\0r\0g\0e\0t\0 \0p\0r\0o\0c\0e\0s\0s\0 \0t\0o\0 \0w\0a\0t\0c\0h\0 \0a\0c\0t\0u\0a\0l\0 \0f\0i\0l\0e\0s\0y\0s\0t\0e\0m\0/\0r\0e\0g\0i\0s\0t\0r\0y\0 \0a\0c\0t\0i\0v\0i\0t\0y\0.\0\12\0 \0 \0"
	.ascii "7\0.\0 \0K\0e\0r\0n\0e\0l\0 \0d\0e\0b\0u\0g\0 \0w\0i\0t\0h\0 \0W\0i\0n\0D\0b\0g\0 \0f\0o\0r\0 \0a\0n\0y\0 \0c\0r\0a\0s\0h\0 \0d\0u\0r\0i\0n\0g\0 \0t\0e\0s\0t\0i\0n\0g\0.\0\12\0 \0 \0F\0u\0l\0l\0 \0w\0o\0r\0k\0f\0l\0o\0w\0:\0 \0d\0o\0c\0s\0/\0"
	.ascii "0\0D\0A\0Y\0_\0R\0E\0S\0E\0A\0R\0C\0H\0_\0W\0O\0R\0K\0F\0L\0O\0W\0.\0m\0d\0\12\0\33\0[\0"
	.ascii "0\0m\0\12\0\0\0"
	.align 8
.LC90:
	.ascii " \0 \0R\0e\0p\0o\0r\0t\0 \0s\0a\0v\0e\0d\0 \0t\0o\0:\0 \0%\0s\0\12\0\0\0"
	.text
	.p2align 4
	.globl	wmain
	.def	wmain;	.scl	2;	.type	32;	.endef
	.seh_proc	wmain
wmain:
	pushq	%r15
	.seh_pushreg	%r15
	pushq	%r14
	.seh_pushreg	%r14
	pushq	%r13
	.seh_pushreg	%r13
	pushq	%r12
	.seh_pushreg	%r12
	pushq	%rbp
	.seh_pushreg	%rbp
	pushq	%rdi
	.seh_pushreg	%rdi
	pushq	%rsi
	.seh_pushreg	%rsi
	pushq	%rbx
	.seh_pushreg	%rbx
	subq	$1752, %rsp
	.seh_stackalloc	1752
	.seh_endprologue
	movq	%rdx, %rbp
	movl	%ecx, %edi
	movl	$1, %ecx
	call	*__imp___acrt_iob_func(%rip)
	movq	%rax, %rcx
	call	*__imp__fileno(%rip)
	movl	$131072, %edx
	movl	%eax, %ecx
	call	*__imp__setmode(%rip)
	movl	$-11, %ecx
	call	*__imp_GetStdHandle(%rip)
	leaq	1216(%rsp), %rdx
	movl	$0, 1216(%rsp)
	movq	%rax, %rbx
	movq	%rax, %rcx
	call	*__imp_GetConsoleMode(%rip)
	testl	%eax, %eax
	jne	.L404
.L2:
	xorl	%edx, %edx
	movl	$520, %r8d
	leaq	1216(%rsp), %rcx
	call	memset
	cmpl	$1, %edi
	jle	.L11
	movl	$0, 348(%rsp)
	xorl	%r15d, %r15d
	movl	$1, %r13d
	xorl	%r14d, %r14d
	movl	$0, 344(%rsp)
	movl	$0, 340(%rsp)
	movl	$0, 336(%rsp)
	movl	$0, 332(%rsp)
	movl	$0, 328(%rsp)
	movl	$0, 324(%rsp)
	movl	$0, 320(%rsp)
	movl	$0, 316(%rsp)
	movl	$0, 312(%rsp)
	movl	$0, 308(%rsp)
	movl	$0, 304(%rsp)
	movl	$0, 300(%rsp)
	movl	$0, 296(%rsp)
	movl	$0, 292(%rsp)
	movl	$0, 288(%rsp)
	movl	$0, 284(%rsp)
	movl	$0, 280(%rsp)
	movl	$0, 276(%rsp)
	movl	$0, 272(%rsp)
	movl	$0, 268(%rsp)
	movl	$0, 264(%rsp)
	movl	$0, 260(%rsp)
	movl	$0, 256(%rsp)
	movl	$0, 252(%rsp)
	movl	$0, 248(%rsp)
	movl	$0, 244(%rsp)
	movl	$0, 240(%rsp)
	movl	$0, 236(%rsp)
	movl	$0, 232(%rsp)
	movl	$0, 228(%rsp)
	movl	$0, 224(%rsp)
	movl	$0, 220(%rsp)
	movl	$0, 216(%rsp)
	movl	$0, 212(%rsp)
	movl	$0, 208(%rsp)
	movl	$0, 204(%rsp)
	movl	$0, 200(%rsp)
	movl	$0, 196(%rsp)
	movl	$0, 192(%rsp)
	movl	$0, 188(%rsp)
	movl	$0, 184(%rsp)
	movl	$0, 180(%rsp)
	movl	$0, 176(%rsp)
	movl	$0, 172(%rsp)
	movl	$0, 168(%rsp)
	movl	$0, 164(%rsp)
	movl	$0, 160(%rsp)
	movl	$0, 156(%rsp)
	movl	$0, 152(%rsp)
	movl	$0, 148(%rsp)
	movl	$0, 144(%rsp)
	movl	$0, 140(%rsp)
	movl	$0, 136(%rsp)
	movl	$0, 132(%rsp)
	movl	$0, 128(%rsp)
	movl	$0, 124(%rsp)
	movl	$0, 120(%rsp)
	movl	$0, 116(%rsp)
	movl	$0, 112(%rsp)
	movl	$0, 372(%rsp)
	movl	$0, 368(%rsp)
	movl	$0, 364(%rsp)
	movl	$0, 360(%rsp)
	movl	$0, 356(%rsp)
	movl	$0, 352(%rsp)
	movq	__imp__wcsicmp(%rip), %rsi
	movl	$0, 108(%rsp)
	movl	$0, 104(%rsp)
	movl	$0, 376(%rsp)
	jmp	.L3
	.p2align 4,,10
	.p2align 3
.L97:
	movl	$1, %r15d
.L5:
	addl	$1, %r13d
	cmpl	%r13d, %edi
	jle	.L405
.L3:
	movslq	%r13d, %rbx
	leaq	.LC4(%rip), %rdx
	leaq	0(%rbp,%rbx,8), %r12
	movq	(%r12), %rcx
	call	*%rsi
	testl	%eax, %eax
	je	.L97
	movq	(%r12), %rcx
	leaq	.LC5(%rip), %rdx
	call	*%rsi
	testl	%eax, %eax
	jne	.L406
	addl	$1, %r13d
	movl	$1, %r14d
	cmpl	%r13d, %edi
	jg	.L3
.L405:
	movl	104(%rsp), %eax
	movl	376(%rsp), %r12d
	movl	%r14d, %r8d
	orl	%r14d, %eax
	orl	108(%rsp), %eax
	orl	352(%rsp), %eax
	orl	356(%rsp), %eax
	orl	360(%rsp), %eax
	orl	364(%rsp), %eax
	orl	368(%rsp), %eax
	orl	372(%rsp), %eax
	orl	%r15d, %eax
	orl	112(%rsp), %eax
	orl	116(%rsp), %eax
	orl	120(%rsp), %eax
	orl	124(%rsp), %eax
	orl	128(%rsp), %eax
	orl	132(%rsp), %eax
	orl	136(%rsp), %eax
	orl	140(%rsp), %eax
	orl	144(%rsp), %eax
	orl	148(%rsp), %eax
	orl	152(%rsp), %eax
	orl	156(%rsp), %eax
	orl	160(%rsp), %eax
	orl	164(%rsp), %eax
	orl	168(%rsp), %eax
	orl	172(%rsp), %eax
	orl	176(%rsp), %eax
	orl	180(%rsp), %eax
	orl	%r12d, %eax
	orl	184(%rsp), %eax
	orl	188(%rsp), %eax
	orl	192(%rsp), %eax
	orl	196(%rsp), %eax
	orl	200(%rsp), %eax
	orl	204(%rsp), %eax
	orl	208(%rsp), %eax
	orl	212(%rsp), %eax
	orl	216(%rsp), %eax
	orl	220(%rsp), %eax
	orl	224(%rsp), %eax
	orl	228(%rsp), %eax
	orl	232(%rsp), %eax
	orl	236(%rsp), %eax
	orl	240(%rsp), %eax
	orl	244(%rsp), %eax
	orl	248(%rsp), %eax
	orl	252(%rsp), %eax
	orl	256(%rsp), %eax
	orl	260(%rsp), %eax
	orl	264(%rsp), %eax
	orl	268(%rsp), %eax
	orl	272(%rsp), %eax
	orl	276(%rsp), %eax
	orl	280(%rsp), %eax
	orl	284(%rsp), %eax
	orl	288(%rsp), %eax
	orl	292(%rsp), %eax
	orl	296(%rsp), %eax
	orl	300(%rsp), %eax
	orl	304(%rsp), %eax
	orl	308(%rsp), %eax
	orl	312(%rsp), %eax
	orl	316(%rsp), %eax
	orl	320(%rsp), %eax
	orl	324(%rsp), %eax
	orl	328(%rsp), %eax
	orl	332(%rsp), %eax
	orl	336(%rsp), %eax
	orl	340(%rsp), %eax
	orl	344(%rsp), %eax
	orl	348(%rsp), %eax
	je	.L11
	testl	%r12d, %r12d
	je	.L12
	movl	%r12d, 348(%rsp)
	movl	%r12d, 344(%rsp)
	movl	%r12d, 340(%rsp)
	movl	%r12d, 336(%rsp)
	movl	%r12d, 332(%rsp)
	movl	%r12d, 328(%rsp)
	movl	%r12d, 324(%rsp)
	movl	%r12d, 320(%rsp)
	movl	%r12d, 316(%rsp)
	movl	%r12d, 312(%rsp)
	movl	%r12d, 308(%rsp)
	movl	%r12d, 304(%rsp)
	movl	%r12d, 300(%rsp)
	movl	%r12d, 296(%rsp)
	movl	%r12d, 292(%rsp)
	movl	%r12d, 288(%rsp)
	movl	%r12d, 284(%rsp)
	movl	%r12d, 280(%rsp)
	movl	%r12d, 276(%rsp)
	movl	%r12d, 272(%rsp)
	movl	%r12d, 268(%rsp)
	movl	%r12d, 264(%rsp)
	movl	%r12d, 260(%rsp)
	movl	%r12d, 256(%rsp)
	movl	%r12d, 252(%rsp)
	movl	%r12d, 248(%rsp)
	movl	%r12d, 244(%rsp)
	movl	%r12d, 240(%rsp)
	movl	%r12d, 236(%rsp)
	movl	%r12d, 232(%rsp)
	movl	%r12d, 228(%rsp)
	movl	%r12d, 224(%rsp)
	movl	%r12d, 220(%rsp)
	movl	%r12d, 216(%rsp)
	movl	%r12d, 212(%rsp)
	movl	%r12d, 208(%rsp)
	movl	%r12d, 204(%rsp)
	movl	%r12d, 200(%rsp)
	movl	%r12d, 196(%rsp)
	movl	%r12d, 192(%rsp)
	movl	%r12d, 188(%rsp)
	movl	%r12d, 184(%rsp)
	movl	%r12d, 180(%rsp)
	movl	%r12d, 176(%rsp)
	movl	%r12d, 172(%rsp)
	movl	%r12d, 168(%rsp)
	movl	%r12d, 164(%rsp)
	movl	%r12d, 160(%rsp)
	movl	%r12d, 156(%rsp)
	movl	%r12d, 152(%rsp)
	movl	%r12d, 148(%rsp)
	movl	%r12d, 144(%rsp)
	movl	%r12d, 140(%rsp)
	movl	%r12d, 136(%rsp)
	movl	%r12d, 132(%rsp)
	movl	%r12d, 128(%rsp)
	movl	%r12d, 124(%rsp)
	movl	%r12d, 120(%rsp)
	movl	%r12d, 116(%rsp)
	movl	%r12d, 112(%rsp)
.L12:
	testl	%r15d, %r15d
	jne	.L169
	movl	%r8d, %r15d
	cmpw	$0, 1216(%rsp)
	jne	.L407
.L14:
	movq	.refptr.g_noColor(%rip), %rbx
	movl	(%rbx), %r9d
	testl	%r9d, %r9d
	je	.L408
.L15:
	pxor	%xmm1, %xmm1
	xorl	%eax, %eax
	movdqa	%xmm1, %xmm0
.L16:
	movl	%eax, %edx
	addl	$64, %eax
	movups	%xmm0, 416(%rsp,%rdx)
	movups	%xmm0, 432(%rsp,%rdx)
	movups	%xmm0, 448(%rsp,%rdx)
	movups	%xmm0, 464(%rsp,%rdx)
	cmpl	$256, %eax
	jb	.L16
	xorl	%eax, %eax
.L18:
	movl	%eax, %edx
	addl	$64, %eax
	movups	%xmm1, 672(%rsp,%rdx)
	movups	%xmm1, 688(%rsp,%rdx)
	movups	%xmm1, 704(%rsp,%rdx)
	movups	%xmm1, 720(%rsp,%rdx)
	cmpl	$256, %eax
	jb	.L18
	leaq	388(%rsp), %rdx
	leaq	416(%rsp), %rcx
	movl	$128, 388(%rsp)
	movl	$128, 392(%rsp)
	call	*__imp_GetUserNameW(%rip)
	leaq	392(%rsp), %rdx
	leaq	672(%rsp), %rcx
	call	*__imp_GetComputerNameW(%rip)
	xorl	%edx, %edx
	movl	$284, %r8d
	leaq	928(%rsp), %rcx
	call	memset
	leaq	928(%rsp), %rcx
	movl	$284, 928(%rsp)
	call	*__imp_GetVersionExW(%rip)
	leaq	416(%rsp), %r8
	leaq	672(%rsp), %rdx
	leaq	.LC82(%rip), %rcx
	call	wprintf
	movl	940(%rsp), %r9d
	movl	936(%rsp), %r8d
	leaq	.LC83(%rip), %rcx
	movl	932(%rsp), %edx
	call	wprintf
	movl	$1280, %r8d
	leaq	408(%rsp), %rax
	movl	$0, 396(%rsp)
	movq	%rax, 80(%rsp)
	movl	$544, %r9d
	movl	$2, %edx
	leaq	402(%rsp), %rcx
	movw	%r8w, 406(%rsp)
	movl	$32, %r8d
	movq	$0, 408(%rsp)
	movl	$0, 402(%rsp)
	movl	$0, 72(%rsp)
	movl	$0, 64(%rsp)
	movl	$0, 56(%rsp)
	movl	$0, 48(%rsp)
	movl	$0, 40(%rsp)
	movl	$0, 32(%rsp)
	call	*__imp_AllocateAndInitializeSid(%rip)
	testl	%eax, %eax
	je	.L20
	xorl	%ecx, %ecx
	movq	408(%rsp), %rdx
	leaq	396(%rsp), %r8
	call	*__imp_CheckTokenMembership(%rip)
	movq	408(%rsp), %rcx
	call	*__imp_FreeSid(%rip)
.L20:
	movl	396(%rsp), %ecx
	leaq	.LC0(%rip), %rax
	leaq	.LC1(%rip), %rdx
	testl	%ecx, %ecx
	leaq	.LC84(%rip), %rcx
	cmovne	%rax, %rdx
	call	wprintf
	leaq	.LC85(%rip), %rcx
	call	wprintf
	testl	%r12d, %r12d
	jne	.L409
.L22:
	movl	104(%rsp), %eax
	testl	%eax, %eax
	jne	.L410
	testl	%r15d, %r15d
	jne	.L411
.L24:
	movl	108(%rsp), %eax
	testl	%eax, %eax
	jne	.L412
.L25:
	movl	352(%rsp), %eax
	testl	%eax, %eax
	jne	.L413
.L26:
	movl	356(%rsp), %eax
	testl	%eax, %eax
	jne	.L414
.L27:
	movl	360(%rsp), %eax
	testl	%eax, %eax
	jne	.L415
.L28:
	movl	364(%rsp), %r15d
	testl	%r15d, %r15d
	jne	.L416
.L29:
	movl	368(%rsp), %r14d
	testl	%r14d, %r14d
	jne	.L417
.L30:
	movl	372(%rsp), %r13d
	testl	%r13d, %r13d
	jne	.L418
.L31:
	movl	112(%rsp), %ebp
	testl	%ebp, %ebp
	jne	.L419
.L32:
	movl	116(%rsp), %edi
	testl	%edi, %edi
	jne	.L420
.L33:
	movl	120(%rsp), %esi
	testl	%esi, %esi
	jne	.L421
.L34:
	movl	124(%rsp), %r11d
	testl	%r11d, %r11d
	jne	.L422
.L35:
	movl	128(%rsp), %r10d
	testl	%r10d, %r10d
	jne	.L423
.L36:
	movl	132(%rsp), %r9d
	testl	%r9d, %r9d
	jne	.L424
.L37:
	movl	136(%rsp), %r8d
	testl	%r8d, %r8d
	jne	.L425
.L38:
	movl	140(%rsp), %ecx
	testl	%ecx, %ecx
	jne	.L426
.L39:
	movl	144(%rsp), %edx
	testl	%edx, %edx
	jne	.L427
.L40:
	movl	148(%rsp), %eax
	testl	%eax, %eax
	jne	.L428
.L41:
	movl	152(%rsp), %eax
	testl	%eax, %eax
	jne	.L429
.L42:
	movl	156(%rsp), %eax
	testl	%eax, %eax
	jne	.L430
.L43:
	movl	160(%rsp), %eax
	testl	%eax, %eax
	jne	.L431
.L44:
	movl	164(%rsp), %eax
	testl	%eax, %eax
	jne	.L432
.L45:
	movl	168(%rsp), %r15d
	testl	%r15d, %r15d
	jne	.L433
.L46:
	movl	172(%rsp), %r14d
	testl	%r14d, %r14d
	jne	.L434
.L47:
	movl	176(%rsp), %r13d
	testl	%r13d, %r13d
	jne	.L435
.L48:
	movl	180(%rsp), %ebp
	testl	%ebp, %ebp
	jne	.L436
.L49:
	movl	184(%rsp), %edi
	testl	%edi, %edi
	jne	.L437
.L50:
	movl	188(%rsp), %esi
	testl	%esi, %esi
	jne	.L438
.L51:
	movl	192(%rsp), %r11d
	testl	%r11d, %r11d
	jne	.L439
.L52:
	movl	196(%rsp), %r10d
	testl	%r10d, %r10d
	jne	.L440
.L53:
	movl	200(%rsp), %r9d
	testl	%r9d, %r9d
	jne	.L441
.L54:
	movl	204(%rsp), %r8d
	testl	%r8d, %r8d
	jne	.L442
.L55:
	movl	208(%rsp), %ecx
	testl	%ecx, %ecx
	jne	.L443
.L56:
	movl	212(%rsp), %edx
	testl	%edx, %edx
	jne	.L444
.L57:
	movl	216(%rsp), %eax
	testl	%eax, %eax
	jne	.L445
.L58:
	movl	220(%rsp), %eax
	testl	%eax, %eax
	jne	.L446
.L59:
	movl	224(%rsp), %eax
	testl	%eax, %eax
	jne	.L447
.L60:
	movl	228(%rsp), %eax
	testl	%eax, %eax
	jne	.L448
.L61:
	movl	232(%rsp), %eax
	testl	%eax, %eax
	jne	.L449
.L62:
	movl	236(%rsp), %r15d
	testl	%r15d, %r15d
	jne	.L450
.L63:
	movl	240(%rsp), %r14d
	testl	%r14d, %r14d
	jne	.L451
.L64:
	movl	244(%rsp), %r13d
	testl	%r13d, %r13d
	jne	.L452
.L65:
	movl	248(%rsp), %ebp
	testl	%ebp, %ebp
	jne	.L453
.L66:
	movl	252(%rsp), %edi
	testl	%edi, %edi
	jne	.L454
.L67:
	movl	256(%rsp), %esi
	testl	%esi, %esi
	jne	.L455
.L68:
	movl	260(%rsp), %r11d
	testl	%r11d, %r11d
	jne	.L456
.L69:
	movl	264(%rsp), %r10d
	testl	%r10d, %r10d
	jne	.L457
.L70:
	movl	268(%rsp), %r9d
	testl	%r9d, %r9d
	jne	.L458
.L71:
	movl	272(%rsp), %r8d
	testl	%r8d, %r8d
	jne	.L459
.L72:
	movl	276(%rsp), %ecx
	testl	%ecx, %ecx
	jne	.L460
.L73:
	movl	280(%rsp), %edx
	testl	%edx, %edx
	jne	.L461
.L74:
	movl	284(%rsp), %eax
	testl	%eax, %eax
	jne	.L462
.L75:
	movl	288(%rsp), %eax
	testl	%eax, %eax
	jne	.L463
.L76:
	movl	292(%rsp), %eax
	testl	%eax, %eax
	jne	.L464
.L77:
	movl	296(%rsp), %eax
	testl	%eax, %eax
	jne	.L465
.L78:
	movl	300(%rsp), %eax
	testl	%eax, %eax
	jne	.L466
.L79:
	movl	304(%rsp), %r15d
	testl	%r15d, %r15d
	jne	.L467
.L80:
	movl	308(%rsp), %r14d
	testl	%r14d, %r14d
	jne	.L468
.L81:
	movl	312(%rsp), %r13d
	testl	%r13d, %r13d
	jne	.L469
.L82:
	movl	316(%rsp), %ebp
	testl	%ebp, %ebp
	jne	.L470
.L83:
	movl	320(%rsp), %edi
	testl	%edi, %edi
	jne	.L471
.L84:
	movl	324(%rsp), %esi
	testl	%esi, %esi
	jne	.L472
.L85:
	movl	328(%rsp), %r11d
	testl	%r11d, %r11d
	jne	.L473
.L86:
	movl	332(%rsp), %r10d
	testl	%r10d, %r10d
	jne	.L474
.L87:
	movl	336(%rsp), %r9d
	testl	%r9d, %r9d
	jne	.L475
.L88:
	movl	340(%rsp), %r8d
	testl	%r8d, %r8d
	jne	.L476
.L89:
	movl	344(%rsp), %ecx
	testl	%ecx, %ecx
	jne	.L477
.L90:
	movl	348(%rsp), %edx
	testl	%edx, %edx
	jne	.L478
.L91:
	leaq	.LC85(%rip), %rcx
	call	wprintf
	movl	(%rbx), %eax
	testl	%eax, %eax
	jne	.L92
	leaq	.LC87(%rip), %rcx
	call	wprintf
	testl	%r12d, %r12d
	jne	.L479
.L94:
	cmpw	$0, 1216(%rsp)
	je	.L9
	movq	.refptr.g_outFile(%rip), %rax
	movq	(%rax), %rcx
	testq	%rcx, %rcx
	je	.L9
	call	fclose
	leaq	1216(%rsp), %rdx
	leaq	.LC90(%rip), %rcx
	call	wprintf
.L9:
	xorl	%eax, %eax
	jmp	.L1
	.p2align 4,,10
	.p2align 3
.L406:
	movq	(%r12), %rcx
	leaq	.LC6(%rip), %rdx
	call	*%rsi
	testl	%eax, %eax
	jne	.L480
	movl	$1, 104(%rsp)
	jmp	.L5
	.p2align 4,,10
	.p2align 3
.L480:
	movq	(%r12), %rcx
	leaq	.LC7(%rip), %rdx
	call	*%rsi
	testl	%eax, %eax
	jne	.L481
	movl	$1, 108(%rsp)
	jmp	.L5
	.p2align 4,,10
	.p2align 3
.L169:
	movl	%r15d, 348(%rsp)
	movl	%r15d, 344(%rsp)
	movl	%r15d, 340(%rsp)
	movl	%r15d, 336(%rsp)
	movl	%r15d, 332(%rsp)
	movl	%r15d, 328(%rsp)
	movl	%r15d, 324(%rsp)
	movl	%r15d, 320(%rsp)
	movl	%r15d, 316(%rsp)
	movl	%r15d, 312(%rsp)
	movl	%r15d, 308(%rsp)
	movl	%r15d, 304(%rsp)
	movl	%r15d, 300(%rsp)
	movl	%r15d, 296(%rsp)
	movl	%r15d, 292(%rsp)
	movl	%r15d, 288(%rsp)
	movl	%r15d, 284(%rsp)
	movl	%r15d, 280(%rsp)
	movl	%r15d, 276(%rsp)
	movl	%r15d, 272(%rsp)
	movl	%r15d, 268(%rsp)
	movl	%r15d, 264(%rsp)
	movl	%r15d, 260(%rsp)
	movl	%r15d, 256(%rsp)
	movl	%r15d, 252(%rsp)
	movl	%r15d, 248(%rsp)
	movl	%r15d, 244(%rsp)
	movl	%r15d, 240(%rsp)
	movl	%r15d, 236(%rsp)
	movl	%r15d, 232(%rsp)
	movl	%r15d, 228(%rsp)
	movl	%r15d, 224(%rsp)
	movl	%r15d, 220(%rsp)
	movl	%r15d, 216(%rsp)
	movl	%r15d, 212(%rsp)
	movl	%r15d, 208(%rsp)
	movl	%r15d, 204(%rsp)
	movl	%r15d, 200(%rsp)
	movl	%r15d, 196(%rsp)
	movl	%r15d, 192(%rsp)
	movl	%r15d, 188(%rsp)
	movl	%r15d, 184(%rsp)
	movl	%r15d, 180(%rsp)
	movl	%r15d, 176(%rsp)
	movl	%r15d, 172(%rsp)
	movl	%r15d, 168(%rsp)
	movl	%r15d, 164(%rsp)
	movl	%r15d, 160(%rsp)
	movl	%r15d, 156(%rsp)
	movl	%r15d, 152(%rsp)
	movl	%r15d, 148(%rsp)
	movl	%r15d, 144(%rsp)
	movl	%r15d, 140(%rsp)
	movl	%r15d, 136(%rsp)
	movl	%r15d, 132(%rsp)
	movl	%r15d, 128(%rsp)
	movl	%r15d, 124(%rsp)
	movl	%r15d, 120(%rsp)
	movl	%r15d, 116(%rsp)
	movl	%r15d, 112(%rsp)
	movl	%r15d, 372(%rsp)
	movl	%r15d, 368(%rsp)
	movl	%r15d, 364(%rsp)
	movl	%r15d, 360(%rsp)
	movl	%r15d, 356(%rsp)
	movl	%r15d, 352(%rsp)
	movl	%r15d, 108(%rsp)
	movl	%r15d, 104(%rsp)
	cmpw	$0, 1216(%rsp)
	je	.L14
.L407:
	leaq	.LC80(%rip), %rdx
	leaq	1216(%rsp), %rcx
	call	*__imp__wfopen(%rip)
	movq	.refptr.g_outFile(%rip), %rdx
	movq	%rax, (%rdx)
	testq	%rax, %rax
	jne	.L14
	leaq	1216(%rsp), %rdx
	leaq	.LC81(%rip), %rcx
	call	wprintf
	jmp	.L14
	.p2align 4,,10
	.p2align 3
.L481:
	movq	(%r12), %rcx
	leaq	.LC8(%rip), %rdx
	call	*%rsi
	testl	%eax, %eax
	jne	.L482
	movl	$1, 352(%rsp)
	jmp	.L5
.L404:
	movl	1216(%rsp), %edx
	movq	%rbx, %rcx
	orl	$4, %edx
	call	*__imp_SetConsoleMode(%rip)
	jmp	.L2
.L408:
	leaq	.LC2(%rip), %rcx
	call	wprintf
	jmp	.L15
.L11:
	leaq	.LC2(%rip), %rcx
	call	wprintf
	movq	0(%rbp), %rdx
	leaq	.LC3(%rip), %rcx
	call	wprintf
	movl	$1, %eax
.L1:
	addq	$1752, %rsp
	popq	%rbx
	popq	%rsi
	popq	%rdi
	popq	%rbp
	popq	%r12
	popq	%r13
	popq	%r14
	popq	%r15
	ret
.L482:
	movq	(%r12), %rcx
	leaq	.LC9(%rip), %rdx
	call	*%rsi
	testl	%eax, %eax
	jne	.L483
	movl	$1, 356(%rsp)
	jmp	.L5
	.p2align 4,,10
	.p2align 3
.L92:
	leaq	.LC88(%rip), %rcx
	call	wprintf
	testl	%r12d, %r12d
	je	.L94
.L479:
	leaq	.LC89(%rip), %rcx
	call	wprintf
	jmp	.L94
.L478:
	call	Module_SymlinkHunt
	jmp	.L91
.L477:
	call	Module_OplockRace
	jmp	.L90
.L476:
	call	Module_SymlinkPrimitives
	jmp	.L89
.L475:
	call	Module_LAPSCredGuard
	jmp	.L88
.L474:
	call	Module_MFTransform
	jmp	.L87
.L473:
	call	Module_COMTreatAs
	jmp	.L86
.L472:
	call	Module_WinsockNSP
	jmp	.L85
.L471:
	call	Module_BiometricWBF
	jmp	.L84
.L410:
	call	Module_Tokens
	testl	%r15d, %r15d
	je	.L24
.L411:
	call	Module_Services
	movl	108(%rsp), %eax
	testl	%eax, %eax
	je	.L25
.L412:
	call	Module_CLSID
	movl	352(%rsp), %eax
	testl	%eax, %eax
	je	.L26
.L413:
	call	Module_Pipes
	movl	356(%rsp), %eax
	testl	%eax, %eax
	je	.L27
.L414:
	call	Module_DLLSearch
	movl	360(%rsp), %eax
	testl	%eax, %eax
	je	.L28
.L415:
	call	Module_Registry
	movl	364(%rsp), %r15d
	testl	%r15d, %r15d
	je	.L29
.L416:
	call	Module_Scheduled
	movl	368(%rsp), %r14d
	testl	%r14d, %r14d
	je	.L30
.L417:
	call	Module_Drivers
	movl	372(%rsp), %r13d
	testl	%r13d, %r13d
	je	.L31
.L418:
	call	Module_Env
	movl	112(%rsp), %ebp
	testl	%ebp, %ebp
	je	.L32
.L419:
	call	Module_PerfLib
	movl	116(%rsp), %edi
	testl	%edi, %edi
	je	.L33
.L420:
	call	Module_ComSurrogate
	movl	120(%rsp), %esi
	testl	%esi, %esi
	je	.L34
.L421:
	call	Module_ETWProvider
	movl	124(%rsp), %r11d
	testl	%r11d, %r11d
	je	.L35
.L422:
	call	Module_ObjNamespace
	movl	128(%rsp), %r10d
	testl	%r10d, %r10d
	je	.L36
.L423:
	call	Module_TOCTOU
	movl	132(%rsp), %r9d
	testl	%r9d, %r9d
	je	.L37
.L424:
	call	Module_PrintSpooler
	movl	136(%rsp), %r8d
	testl	%r8d, %r8d
	je	.L38
.L425:
	call	Module_LSAPackage
	movl	140(%rsp), %ecx
	testl	%ecx, %ecx
	je	.L39
.L426:
	call	Module_AppCertDLL
	movl	144(%rsp), %edx
	testl	%edx, %edx
	je	.L40
.L427:
	call	Module_CredentialProvider
	movl	148(%rsp), %eax
	testl	%eax, %eax
	je	.L41
.L428:
	call	Module_NetworkProvider
	movl	152(%rsp), %eax
	testl	%eax, %eax
	je	.L42
.L429:
	call	Module_Autorun
	movl	156(%rsp), %eax
	testl	%eax, %eax
	je	.L43
.L430:
	call	Module_WmiProvider
	movl	160(%rsp), %eax
	testl	%eax, %eax
	je	.L44
.L431:
	call	Module_ALPCSurface
	movl	164(%rsp), %eax
	testl	%eax, %eax
	je	.L45
.L432:
	call	Module_RPCEndpoint
	movl	168(%rsp), %r15d
	testl	%r15d, %r15d
	je	.L46
.L433:
	call	Module_DriverIOCTL
	movl	172(%rsp), %r14d
	testl	%r14d, %r14d
	je	.L47
.L434:
	call	Module_ImpersonateHunter
	movl	176(%rsp), %r13d
	testl	%r13d, %r13d
	je	.L48
.L435:
	call	Module_COMAutoElevate
	movl	180(%rsp), %ebp
	testl	%ebp, %ebp
	je	.L49
.L436:
	call	Module_SectionAudit
	movl	184(%rsp), %edi
	testl	%edi, %edi
	je	.L50
.L437:
	call	Module_WinMsgSurface
	movl	188(%rsp), %esi
	testl	%esi, %esi
	je	.L51
.L438:
	call	Module_AlwaysInstallElevated
	movl	192(%rsp), %r11d
	testl	%r11d, %r11d
	je	.L52
.L439:
	call	Module_AppInitDLL
	movl	196(%rsp), %r10d
	testl	%r10d, %r10d
	je	.L53
.L440:
	call	Module_UACBypassHKCU
	movl	200(%rsp), %r9d
	testl	%r9d, %r9d
	je	.L54
.L441:
	call	Module_LocalServiceScan
	movl	204(%rsp), %r8d
	testl	%r8d, %r8d
	je	.L55
.L442:
	call	Module_WERHandler
	movl	208(%rsp), %ecx
	testl	%ecx, %ecx
	je	.L56
.L443:
	call	Module_AppCompatSDB
	movl	212(%rsp), %edx
	testl	%edx, %edx
	je	.L57
.L444:
	call	Module_ProcessDACL
	movl	216(%rsp), %eax
	testl	%eax, %eax
	je	.L58
.L445:
	call	Module_DcomHijack
	movl	220(%rsp), %eax
	testl	%eax, %eax
	je	.L59
.L446:
	call	Module_ShellHandler
	movl	224(%rsp), %eax
	testl	%eax, %eax
	je	.L60
.L447:
	call	Module_BitsSurface
	movl	228(%rsp), %eax
	testl	%eax, %eax
	je	.L61
.L448:
	call	Module_TelemetrySurface
	movl	232(%rsp), %eax
	testl	%eax, %eax
	je	.L62
.L449:
	call	Module_SecondaryLogon
	movl	236(%rsp), %r15d
	testl	%r15d, %r15d
	je	.L63
.L450:
	call	Module_FontProvider
	movl	240(%rsp), %r14d
	testl	%r14d, %r14d
	je	.L64
.L451:
	call	Module_HandleInherit
	movl	244(%rsp), %r13d
	testl	%r13d, %r13d
	je	.L65
.L452:
	call	Module_DotNetCLR
	movl	248(%rsp), %ebp
	testl	%ebp, %ebp
	je	.L66
.L453:
	call	Module_ComPlus
	movl	252(%rsp), %edi
	testl	%edi, %edi
	je	.L67
.L454:
	call	Module_IFEOHijack
	movl	256(%rsp), %esi
	testl	%esi, %esi
	je	.L68
.L455:
	call	Module_WinlogonPlugins
	movl	260(%rsp), %r11d
	testl	%r11d, %r11d
	je	.L69
.L456:
	call	Module_LSANotify
	movl	264(%rsp), %r10d
	testl	%r10d, %r10d
	je	.L70
.L457:
	call	Module_HiveNightmare
	movl	268(%rsp), %r9d
	testl	%r9d, %r9d
	je	.L71
.L458:
	call	Module_TimeProvider
	movl	272(%rsp), %r8d
	testl	%r8d, %r8d
	je	.L72
.L459:
	call	Module_ActiveSetup
	movl	276(%rsp), %ecx
	testl	%ecx, %ecx
	je	.L73
.L460:
	call	Module_CryptoProvider
	movl	280(%rsp), %edx
	testl	%edx, %edx
	je	.L74
.L461:
	call	Module_PSHijack
	movl	284(%rsp), %eax
	testl	%eax, %eax
	je	.L75
.L462:
	call	Module_EAPProvider
	movl	288(%rsp), %eax
	testl	%eax, %eax
	je	.L76
.L463:
	call	Module_VSSWriter
	movl	292(%rsp), %eax
	testl	%eax, %eax
	je	.L77
.L464:
	call	Module_UACPolicy
	movl	296(%rsp), %eax
	testl	%eax, %eax
	je	.L78
.L465:
	call	Module_SYSVOLScripts
	movl	300(%rsp), %eax
	testl	%eax, %eax
	je	.L79
.L466:
	call	Module_SENSSubscriptions
	movl	304(%rsp), %r15d
	testl	%r15d, %r15d
	je	.L80
.L467:
	call	Module_WinSearchIFilter
	movl	308(%rsp), %r14d
	testl	%r14d, %r14d
	je	.L81
.L468:
	call	Module_MultimediaCodec
	movl	312(%rsp), %r13d
	testl	%r13d, %r13d
	je	.L82
.L469:
	call	Module_MSDTCSurface
	movl	316(%rsp), %ebp
	testl	%ebp, %ebp
	je	.L83
.L470:
	call	Module_IISSurface
	jmp	.L83
.L409:
	leaq	.LC86(%rip), %rcx
	call	wprintf
	jmp	.L22
.L483:
	movq	(%r12), %rcx
	leaq	.LC10(%rip), %rdx
	call	*%rsi
	testl	%eax, %eax
	jne	.L484
	movl	$1, 360(%rsp)
	jmp	.L5
.L484:
	movq	(%r12), %rcx
	leaq	.LC11(%rip), %rdx
	call	*%rsi
	testl	%eax, %eax
	jne	.L485
	movl	$1, 364(%rsp)
	jmp	.L5
.L485:
	movq	(%r12), %rcx
	leaq	.LC12(%rip), %rdx
	call	*%rsi
	testl	%eax, %eax
	jne	.L486
	movl	$1, 368(%rsp)
	jmp	.L5
.L486:
	movq	(%r12), %rcx
	leaq	.LC13(%rip), %rdx
	call	*%rsi
	testl	%eax, %eax
	jne	.L487
	movl	$1, 372(%rsp)
	jmp	.L5
.L487:
	movq	(%r12), %rcx
	leaq	.LC14(%rip), %rdx
	call	*%rsi
	testl	%eax, %eax
	jne	.L488
	movl	$1, 112(%rsp)
	jmp	.L5
.L488:
	movq	(%r12), %rcx
	leaq	.LC15(%rip), %rdx
	call	*%rsi
	testl	%eax, %eax
	jne	.L489
	movl	$1, 116(%rsp)
	jmp	.L5
.L489:
	movq	(%r12), %rcx
	leaq	.LC16(%rip), %rdx
	call	*%rsi
	testl	%eax, %eax
	jne	.L490
	movl	$1, 120(%rsp)
	jmp	.L5
.L490:
	movq	(%r12), %rcx
	leaq	.LC17(%rip), %rdx
	call	*%rsi
	testl	%eax, %eax
	jne	.L491
	movl	$1, 124(%rsp)
	jmp	.L5
.L491:
	movq	(%r12), %rcx
	leaq	.LC18(%rip), %rdx
	call	*%rsi
	testl	%eax, %eax
	jne	.L492
	movl	$1, 128(%rsp)
	jmp	.L5
.L492:
	movq	(%r12), %rcx
	leaq	.LC19(%rip), %rdx
	call	*%rsi
	testl	%eax, %eax
	jne	.L493
	movl	$1, 132(%rsp)
	jmp	.L5
.L493:
	movq	(%r12), %rcx
	leaq	.LC20(%rip), %rdx
	call	*%rsi
	testl	%eax, %eax
	jne	.L494
	movl	$1, 136(%rsp)
	jmp	.L5
.L494:
	movq	(%r12), %rcx
	leaq	.LC21(%rip), %rdx
	call	*%rsi
	testl	%eax, %eax
	jne	.L495
	movl	$1, 140(%rsp)
	jmp	.L5
.L495:
	movq	(%r12), %rcx
	leaq	.LC22(%rip), %rdx
	call	*%rsi
	testl	%eax, %eax
	jne	.L496
	movl	$1, 144(%rsp)
	jmp	.L5
.L496:
	movq	(%r12), %rcx
	leaq	.LC23(%rip), %rdx
	call	*%rsi
	testl	%eax, %eax
	jne	.L497
	movl	$1, 148(%rsp)
	jmp	.L5
.L497:
	movq	(%r12), %rcx
	leaq	.LC24(%rip), %rdx
	call	*%rsi
	testl	%eax, %eax
	jne	.L498
	movl	$1, 152(%rsp)
	jmp	.L5
.L498:
	movq	(%r12), %rcx
	leaq	.LC25(%rip), %rdx
	call	*%rsi
	testl	%eax, %eax
	jne	.L499
	movl	$1, 156(%rsp)
	jmp	.L5
.L499:
	movq	(%r12), %rcx
	leaq	.LC26(%rip), %rdx
	call	*%rsi
	testl	%eax, %eax
	jne	.L500
	movl	$1, 160(%rsp)
	jmp	.L5
.L500:
	movq	(%r12), %rcx
	leaq	.LC27(%rip), %rdx
	call	*%rsi
	testl	%eax, %eax
	jne	.L501
	movl	$1, 164(%rsp)
	jmp	.L5
.L501:
	movq	(%r12), %rcx
	leaq	.LC28(%rip), %rdx
	call	*%rsi
	testl	%eax, %eax
	jne	.L502
	movl	$1, 168(%rsp)
	jmp	.L5
.L502:
	movq	(%r12), %rcx
	leaq	.LC29(%rip), %rdx
	call	*%rsi
	testl	%eax, %eax
	jne	.L503
	movl	$1, 172(%rsp)
	jmp	.L5
.L503:
	movq	(%r12), %rcx
	leaq	.LC30(%rip), %rdx
	call	*%rsi
	testl	%eax, %eax
	jne	.L504
	movl	$1, 176(%rsp)
	jmp	.L5
.L504:
	movq	(%r12), %rcx
	leaq	.LC31(%rip), %rdx
	call	*%rsi
	testl	%eax, %eax
	jne	.L505
	movl	$1, 180(%rsp)
	jmp	.L5
.L505:
	movq	(%r12), %rcx
	leaq	.LC32(%rip), %rdx
	call	*%rsi
	testl	%eax, %eax
	jne	.L506
	movl	$1, 376(%rsp)
	jmp	.L5
.L506:
	movq	(%r12), %rcx
	leaq	.LC33(%rip), %rdx
	call	*%rsi
	testl	%eax, %eax
	jne	.L507
	movl	$1, 184(%rsp)
	jmp	.L5
.L507:
	movq	(%r12), %rcx
	leaq	.LC34(%rip), %rdx
	call	*%rsi
	testl	%eax, %eax
	jne	.L508
	movl	$1, 188(%rsp)
	jmp	.L5
.L508:
	movq	(%r12), %rcx
	leaq	.LC35(%rip), %rdx
	call	*%rsi
	testl	%eax, %eax
	jne	.L509
	movl	$1, 192(%rsp)
	jmp	.L5
.L509:
	movq	(%r12), %rcx
	leaq	.LC36(%rip), %rdx
	call	*%rsi
	testl	%eax, %eax
	jne	.L510
	movl	$1, 196(%rsp)
	jmp	.L5
.L510:
	movq	(%r12), %rcx
	leaq	.LC37(%rip), %rdx
	call	*%rsi
	testl	%eax, %eax
	jne	.L511
	movl	$1, 200(%rsp)
	jmp	.L5
.L511:
	movq	(%r12), %rcx
	leaq	.LC38(%rip), %rdx
	call	*%rsi
	testl	%eax, %eax
	jne	.L512
	movl	$1, 204(%rsp)
	jmp	.L5
.L512:
	movq	(%r12), %rcx
	leaq	.LC39(%rip), %rdx
	call	*%rsi
	testl	%eax, %eax
	jne	.L513
	movl	$1, 208(%rsp)
	jmp	.L5
.L513:
	movq	(%r12), %rcx
	leaq	.LC40(%rip), %rdx
	call	*%rsi
	testl	%eax, %eax
	jne	.L514
	movl	$1, 212(%rsp)
	jmp	.L5
.L514:
	movq	(%r12), %rcx
	leaq	.LC41(%rip), %rdx
	call	*%rsi
	testl	%eax, %eax
	jne	.L515
	movl	$1, 216(%rsp)
	jmp	.L5
.L515:
	movq	(%r12), %rcx
	leaq	.LC42(%rip), %rdx
	call	*%rsi
	testl	%eax, %eax
	jne	.L516
	movl	$1, 220(%rsp)
	jmp	.L5
.L516:
	movq	(%r12), %rcx
	leaq	.LC43(%rip), %rdx
	call	*%rsi
	testl	%eax, %eax
	jne	.L517
	movl	$1, 224(%rsp)
	jmp	.L5
.L517:
	movq	(%r12), %rcx
	leaq	.LC44(%rip), %rdx
	call	*%rsi
	testl	%eax, %eax
	jne	.L518
	movl	$1, 228(%rsp)
	jmp	.L5
.L518:
	movq	(%r12), %rcx
	leaq	.LC45(%rip), %rdx
	call	*%rsi
	testl	%eax, %eax
	jne	.L519
	movl	$1, 232(%rsp)
	jmp	.L5
.L519:
	movq	(%r12), %rcx
	leaq	.LC46(%rip), %rdx
	call	*%rsi
	testl	%eax, %eax
	jne	.L520
	movl	$1, 236(%rsp)
	jmp	.L5
.L520:
	movq	(%r12), %rcx
	leaq	.LC47(%rip), %rdx
	call	*%rsi
	testl	%eax, %eax
	jne	.L521
	movl	$1, 240(%rsp)
	jmp	.L5
.L521:
	movq	(%r12), %rcx
	leaq	.LC48(%rip), %rdx
	call	*%rsi
	testl	%eax, %eax
	jne	.L522
	movl	$1, 244(%rsp)
	jmp	.L5
.L522:
	movq	(%r12), %rcx
	leaq	.LC49(%rip), %rdx
	call	*%rsi
	testl	%eax, %eax
	jne	.L523
	movl	$1, 248(%rsp)
	jmp	.L5
.L523:
	movq	(%r12), %rcx
	leaq	.LC50(%rip), %rdx
	call	*%rsi
	testl	%eax, %eax
	jne	.L524
	movl	$1, 252(%rsp)
	jmp	.L5
.L524:
	movq	(%r12), %rcx
	leaq	.LC51(%rip), %rdx
	call	*%rsi
	testl	%eax, %eax
	jne	.L525
	movl	$1, 256(%rsp)
	jmp	.L5
.L525:
	movq	(%r12), %rcx
	leaq	.LC52(%rip), %rdx
	call	*%rsi
	testl	%eax, %eax
	jne	.L526
	movl	$1, 260(%rsp)
	jmp	.L5
.L526:
	movq	(%r12), %rcx
	leaq	.LC53(%rip), %rdx
	call	*%rsi
	testl	%eax, %eax
	jne	.L527
	movl	$1, 264(%rsp)
	jmp	.L5
.L527:
	movq	(%r12), %rcx
	leaq	.LC54(%rip), %rdx
	call	*%rsi
	testl	%eax, %eax
	jne	.L528
	movl	$1, 268(%rsp)
	jmp	.L5
.L528:
	movq	(%r12), %rcx
	leaq	.LC55(%rip), %rdx
	call	*%rsi
	testl	%eax, %eax
	jne	.L529
	movl	$1, 272(%rsp)
	jmp	.L5
.L529:
	movq	(%r12), %rcx
	leaq	.LC56(%rip), %rdx
	call	*%rsi
	testl	%eax, %eax
	jne	.L530
	movl	$1, 276(%rsp)
	jmp	.L5
.L530:
	movq	(%r12), %rcx
	leaq	.LC57(%rip), %rdx
	call	*%rsi
	testl	%eax, %eax
	jne	.L531
	movl	$1, 280(%rsp)
	jmp	.L5
.L531:
	movq	(%r12), %rcx
	leaq	.LC58(%rip), %rdx
	call	*%rsi
	testl	%eax, %eax
	jne	.L532
	movl	$1, 284(%rsp)
	jmp	.L5
.L532:
	movq	(%r12), %rcx
	leaq	.LC59(%rip), %rdx
	call	*%rsi
	testl	%eax, %eax
	jne	.L533
	movl	$1, 288(%rsp)
	jmp	.L5
.L533:
	movq	(%r12), %rcx
	leaq	.LC60(%rip), %rdx
	call	*%rsi
	testl	%eax, %eax
	jne	.L534
	movl	$1, 292(%rsp)
	jmp	.L5
.L534:
	movq	(%r12), %rcx
	leaq	.LC61(%rip), %rdx
	call	*%rsi
	testl	%eax, %eax
	jne	.L535
	movl	$1, 296(%rsp)
	jmp	.L5
.L535:
	movq	(%r12), %rcx
	leaq	.LC62(%rip), %rdx
	call	*%rsi
	testl	%eax, %eax
	jne	.L536
	movl	$1, 300(%rsp)
	jmp	.L5
.L536:
	movq	(%r12), %rcx
	leaq	.LC63(%rip), %rdx
	call	*%rsi
	testl	%eax, %eax
	jne	.L537
	movl	$1, 304(%rsp)
	jmp	.L5
.L537:
	movq	(%r12), %rcx
	leaq	.LC64(%rip), %rdx
	call	*%rsi
	testl	%eax, %eax
	jne	.L538
	movl	$1, 308(%rsp)
	jmp	.L5
.L538:
	movq	(%r12), %rcx
	leaq	.LC65(%rip), %rdx
	call	*%rsi
	testl	%eax, %eax
	jne	.L539
	movl	$1, 312(%rsp)
	jmp	.L5
.L539:
	movq	(%r12), %rcx
	leaq	.LC66(%rip), %rdx
	call	*%rsi
	testl	%eax, %eax
	jne	.L540
	movl	$1, 316(%rsp)
	jmp	.L5
.L540:
	movq	(%r12), %rcx
	leaq	.LC67(%rip), %rdx
	call	*%rsi
	testl	%eax, %eax
	jne	.L541
	movl	$1, 320(%rsp)
	jmp	.L5
.L541:
	movq	(%r12), %rcx
	leaq	.LC68(%rip), %rdx
	call	*%rsi
	testl	%eax, %eax
	jne	.L542
	movl	$1, 324(%rsp)
	jmp	.L5
.L542:
	movq	(%r12), %rcx
	leaq	.LC69(%rip), %rdx
	call	*%rsi
	testl	%eax, %eax
	jne	.L543
	movl	$1, 328(%rsp)
	jmp	.L5
.L543:
	movq	(%r12), %rcx
	leaq	.LC70(%rip), %rdx
	call	*%rsi
	testl	%eax, %eax
	jne	.L544
	movl	$1, 332(%rsp)
	jmp	.L5
.L544:
	movq	(%r12), %rcx
	leaq	.LC71(%rip), %rdx
	call	*%rsi
	testl	%eax, %eax
	jne	.L545
	movl	$1, 336(%rsp)
	jmp	.L5
.L545:
	movq	(%r12), %rcx
	leaq	.LC72(%rip), %rdx
	call	*%rsi
	testl	%eax, %eax
	jne	.L546
	movl	$1, 340(%rsp)
	jmp	.L5
.L546:
	movq	(%r12), %rcx
	leaq	.LC73(%rip), %rdx
	call	*%rsi
	testl	%eax, %eax
	jne	.L547
	movl	$1, 344(%rsp)
	jmp	.L5
.L547:
	movq	(%r12), %rcx
	leaq	.LC74(%rip), %rdx
	call	*%rsi
	testl	%eax, %eax
	jne	.L548
	movl	$1, 348(%rsp)
	jmp	.L5
.L548:
	movq	(%r12), %rcx
	leaq	.LC75(%rip), %rdx
	call	*%rsi
	testl	%eax, %eax
	jne	.L6
	movq	.refptr.g_noColor(%rip), %rax
	movl	$1, (%rax)
	jmp	.L5
.L6:
	movq	(%r12), %rcx
	leaq	.LC76(%rip), %rdx
	call	*%rsi
	testl	%eax, %eax
	jne	.L7
	leal	1(%r13), %r10d
	cmpl	%edi, %r10d
	jl	.L549
.L7:
	movq	(%r12), %rcx
	leaq	.LC77(%rip), %rdx
	call	*%rsi
	testl	%eax, %eax
	je	.L10
	movq	(%r12), %rcx
	leaq	.LC78(%rip), %rdx
	call	*%rsi
	testl	%eax, %eax
	je	.L10
	movq	(%r12), %rcx
	leaq	.LC79(%rip), %rdx
	call	*%rsi
	testl	%eax, %eax
	jne	.L5
.L10:
	leaq	.LC2(%rip), %rcx
	call	wprintf
	movq	0(%rbp), %rdx
	leaq	.LC3(%rip), %rcx
	call	wprintf
	xorl	%eax, %eax
	jmp	.L1
.L549:
	movq	8(%rbp,%rbx,8), %rdx
	movl	$259, %r8d
	leaq	1216(%rsp), %rcx
	movl	%r10d, 380(%rsp)
	call	wcsncpy
	movl	380(%rsp), %r13d
	jmp	.L5
	.seh_endproc
	.ident	"GCC: (Rev2, Built by MSYS2 project) 16.1.0"
	.def	memset;	.scl	2;	.type	32;	.endef
	.def	wprintf;	.scl	2;	.type	32;	.endef
	.def	fclose;	.scl	2;	.type	32;	.endef
	.def	Module_SymlinkHunt;	.scl	2;	.type	32;	.endef
	.def	Module_OplockRace;	.scl	2;	.type	32;	.endef
	.def	Module_SymlinkPrimitives;	.scl	2;	.type	32;	.endef
	.def	Module_LAPSCredGuard;	.scl	2;	.type	32;	.endef
	.def	Module_MFTransform;	.scl	2;	.type	32;	.endef
	.def	Module_COMTreatAs;	.scl	2;	.type	32;	.endef
	.def	Module_WinsockNSP;	.scl	2;	.type	32;	.endef
	.def	Module_BiometricWBF;	.scl	2;	.type	32;	.endef
	.def	Module_Tokens;	.scl	2;	.type	32;	.endef
	.def	Module_Services;	.scl	2;	.type	32;	.endef
	.def	Module_CLSID;	.scl	2;	.type	32;	.endef
	.def	Module_Pipes;	.scl	2;	.type	32;	.endef
	.def	Module_DLLSearch;	.scl	2;	.type	32;	.endef
	.def	Module_Registry;	.scl	2;	.type	32;	.endef
	.def	Module_Scheduled;	.scl	2;	.type	32;	.endef
	.def	Module_Drivers;	.scl	2;	.type	32;	.endef
	.def	Module_Env;	.scl	2;	.type	32;	.endef
	.def	Module_PerfLib;	.scl	2;	.type	32;	.endef
	.def	Module_ComSurrogate;	.scl	2;	.type	32;	.endef
	.def	Module_ETWProvider;	.scl	2;	.type	32;	.endef
	.def	Module_ObjNamespace;	.scl	2;	.type	32;	.endef
	.def	Module_TOCTOU;	.scl	2;	.type	32;	.endef
	.def	Module_PrintSpooler;	.scl	2;	.type	32;	.endef
	.def	Module_LSAPackage;	.scl	2;	.type	32;	.endef
	.def	Module_AppCertDLL;	.scl	2;	.type	32;	.endef
	.def	Module_CredentialProvider;	.scl	2;	.type	32;	.endef
	.def	Module_NetworkProvider;	.scl	2;	.type	32;	.endef
	.def	Module_Autorun;	.scl	2;	.type	32;	.endef
	.def	Module_WmiProvider;	.scl	2;	.type	32;	.endef
	.def	Module_ALPCSurface;	.scl	2;	.type	32;	.endef
	.def	Module_RPCEndpoint;	.scl	2;	.type	32;	.endef
	.def	Module_DriverIOCTL;	.scl	2;	.type	32;	.endef
	.def	Module_ImpersonateHunter;	.scl	2;	.type	32;	.endef
	.def	Module_COMAutoElevate;	.scl	2;	.type	32;	.endef
	.def	Module_SectionAudit;	.scl	2;	.type	32;	.endef
	.def	Module_WinMsgSurface;	.scl	2;	.type	32;	.endef
	.def	Module_AlwaysInstallElevated;	.scl	2;	.type	32;	.endef
	.def	Module_AppInitDLL;	.scl	2;	.type	32;	.endef
	.def	Module_UACBypassHKCU;	.scl	2;	.type	32;	.endef
	.def	Module_LocalServiceScan;	.scl	2;	.type	32;	.endef
	.def	Module_WERHandler;	.scl	2;	.type	32;	.endef
	.def	Module_AppCompatSDB;	.scl	2;	.type	32;	.endef
	.def	Module_ProcessDACL;	.scl	2;	.type	32;	.endef
	.def	Module_DcomHijack;	.scl	2;	.type	32;	.endef
	.def	Module_ShellHandler;	.scl	2;	.type	32;	.endef
	.def	Module_BitsSurface;	.scl	2;	.type	32;	.endef
	.def	Module_TelemetrySurface;	.scl	2;	.type	32;	.endef
	.def	Module_SecondaryLogon;	.scl	2;	.type	32;	.endef
	.def	Module_FontProvider;	.scl	2;	.type	32;	.endef
	.def	Module_HandleInherit;	.scl	2;	.type	32;	.endef
	.def	Module_DotNetCLR;	.scl	2;	.type	32;	.endef
	.def	Module_ComPlus;	.scl	2;	.type	32;	.endef
	.def	Module_IFEOHijack;	.scl	2;	.type	32;	.endef
	.def	Module_WinlogonPlugins;	.scl	2;	.type	32;	.endef
	.def	Module_LSANotify;	.scl	2;	.type	32;	.endef
	.def	Module_HiveNightmare;	.scl	2;	.type	32;	.endef
	.def	Module_TimeProvider;	.scl	2;	.type	32;	.endef
	.def	Module_ActiveSetup;	.scl	2;	.type	32;	.endef
	.def	Module_CryptoProvider;	.scl	2;	.type	32;	.endef
	.def	Module_PSHijack;	.scl	2;	.type	32;	.endef
	.def	Module_EAPProvider;	.scl	2;	.type	32;	.endef
	.def	Module_VSSWriter;	.scl	2;	.type	32;	.endef
	.def	Module_UACPolicy;	.scl	2;	.type	32;	.endef
	.def	Module_SYSVOLScripts;	.scl	2;	.type	32;	.endef
	.def	Module_SENSSubscriptions;	.scl	2;	.type	32;	.endef
	.def	Module_WinSearchIFilter;	.scl	2;	.type	32;	.endef
	.def	Module_MultimediaCodec;	.scl	2;	.type	32;	.endef
	.def	Module_MSDTCSurface;	.scl	2;	.type	32;	.endef
	.def	Module_IISSurface;	.scl	2;	.type	32;	.endef
	.def	wcsncpy;	.scl	2;	.type	32;	.endef
	.section	.rdata$.refptr.g_outFile, "dr"
	.p2align	3, 0
	.globl	.refptr.g_outFile
	.linkonce	discard
.refptr.g_outFile:
	.quad	g_outFile
	.section	.rdata$.refptr.g_noColor, "dr"
	.p2align	3, 0
	.globl	.refptr.g_noColor
	.linkonce	discard
.refptr.g_noColor:
	.quad	g_noColor
